?GetStyleData@nsFrame@@UBGIW4nsStyleStructID@@AAPBUnsStyleStruct@@@Z ; 19763205
?GetFocused@nsOutlinerBodyFrame@@UAGIPAH@Z ; 13372661
?GetView@nsFrame@@UBGIPAVnsIPresContext@@PAPAVnsIView@@@Z ; 12161953
?GetFrameState@nsFrame@@UAGIPAI@Z ; 8697114
?GetNextSibling@nsFrame@@UBGIPAPAVnsIFrame@@@Z ; 7362704
?GetOrigin@nsFrame@@UBGIAAUnsPoint@@@Z ; 7353691
?GetFrame@nsBoxFrame@@UAGIPAPAVnsIFrame@@@Z ; 3489272
?Release@nsTextInputListener@@UAGKXZ ; 3250402
?AddRef@PresShell@@UAGKXZ ; 3250402
?SearchTree@nsDST@@AAEIPAXIPAPAX@Z ; 3125229
?Search@nsDST@@QAEIPAXIPAPAX@Z ; 3113938
?GetEventStateManager@nsPresContext@@UAGIPAPAVnsIEventStateManager@@@Z ; 3110019
?GetCompatibilityMode@nsPresContext@@UAGIPAW4nsCompatibility@@@Z ; 3043094
??0nsFrameItems@@QAE@PAVnsIFrame@@@Z ; 2978922
?GetFrameType@nsBlockFrame@@UBGIPAPAVnsIAtom@@@Z ; 2840505
?GetShell@nsPresContext@@UAGIPAPAVnsIPresShell@@@Z ; 2676263
??0nsStyleCoord@@QAE@W4nsStyleUnit@@@Z ; 2261938
?GetRect@nsFrame@@UBGIAAUnsRect@@@Z ; 2245417
?assign_assuming_AddRef@nsCOMPtr_base@@IAEXPAVnsISupports@@@Z ; 2135418
?Translate@nsSpaceManager@@UAGIHH@Z ; 2042104
?SizeTo@nsFrame@@UAGIPAVnsIPresContext@@HH@Z ; 1986366
?RemovePropertyForFrame@PropertyList@FrameManager@@QAEHPAVnsIPresContext@@PAVnsIFrame@@@Z ; 1891809
??YnsMargin@@QAEAAU0@ABU0@@Z ; 1889474
?GetNextWord@nsTextTransformer@@QAEPAGHPAH000HH@Z ; 1868734
?HasFloaters@nsLineBox@@QBEHXZ ; 1727996
?MoveTo@nsFrame@@UAGIPAVnsIPresContext@@HH@Z ; 1717457
?AddRef@nsFrameTraversal@@UAGKXZ ; 1591708
?GetFrameType@nsTextFrame@@UBGIPAPAVnsIAtom@@@Z ; 1509492
?CanContinueTextRun@nsInlineFrame@@UBGIAAH@Z ; 1468173
?GetCurrentMenuItem@nsMenuBarFrame@@UAGIPAPAVnsIMenuFrame@@@Z ; 1401894
?IsPercentageUnitSides@nsLineLayout@@SAHPBVnsStyleSides@@@Z ; 1376031
?QueryInterface@nsFrame@@UAGIABUnsID@@PAPAX@Z ; 1371257
?GetLanguage@nsPresContext@@UAGIPAPAVnsILanguageAtom@@@Z ; 1369091
?SetRect@nsFrame@@UAGIPAVnsIPresContext@@ABUnsRect@@@Z ; 1305588
?GetFirstInFlow@nsSplittableFrame@@QBEPAVnsIFrame@@XZ ; 1288561
?ComputeVerticalValue@nsHTMLReflowState@@IAEXHW4nsStyleUnit@@ABVnsStyleCoord@@AAH@Z ; 1231366
?ComputeHorizontalValue@nsHTMLReflowState@@IAEXHW4nsStyleUnit@@ABVnsStyleCoord@@AAH@Z ; 1221421
?GetNextInFlow@nsSplittableFrame@@UBGIPAPAVnsIFrame@@@Z ; 1221157
??0PerFrameData@nsLineLayout@@QAE@XZ ; 1199151
?GetFrameType@nsTableCellFrame@@UBGIPAPAVnsIAtom@@@Z ; 1198238
?GetFrameForPointUsing@nsContainerFrame@@IAEIPAVnsIPresContext@@ABUnsPoint@@PAVnsIAtom@@W4nsFramePaintLayer@@HPAPAVnsIFrame@@@Z ; 1196435
??0nsPseudoFrameData@@QAE@XZ ; 1179962
?SetTransformedTextIsAscii@nsTextTransformer@@QAEXH@Z ; 1178122
?Release@FrameManager@@UAGKXZ ; 1172179
?GetFrameManager@PresShell@@UBGIPAPAVnsIFrameManager@@@Z ; 1171849
?GetPropertyListFor@FrameManager@@ABEPAUPropertyList@1@PAVnsIAtom@@@Z ; 1171221
?GetContainingBlockReflowState@nsHTMLReflowState@@SAPBU1@PBU1@@Z ; 1169951
?GetCombinedArea@nsLineBox@@QAEXPAUnsRect@@@Z ; 1165682
?Init@nsHTMLReflowState@@IAEXPAVnsIPresContext@@HH@Z ; 1158228
?DetermineFrameType@nsHTMLReflowState@@KAIPAVnsIFrame@@PBUnsStylePosition@@PBUnsStyleDisplay@@@Z ; 1158228
?InitConstraints@nsHTMLReflowState@@IAEXPAVnsIPresContext@@HH@Z ; 1158228
?ComputeMinMaxValues@nsHTMLReflowState@@IAEXHHPBU1@@Z ; 1152719
?ComputeMargin@nsHTMLReflowState@@IAEXHPBU1@@Z ; 1152719
?ComputePadding@nsHTMLReflowState@@IAEXHPBU1@@Z ; 1152719
?GetFrame@nsSpaceManager@@UBGIAAPAVnsIFrame@@@Z ; 1141856
?Reset@nsPseudoFrameData@@QAEXXZ ; 1137920
?GetStyleContext@nsFrame@@UBGIPAPAVnsIStyleContext@@@Z ; 1136868
?GetFrameForPoint@nsTableCellFrame@@UAGIPAVnsIPresContext@@ABUnsPoint@@W4nsFramePaintLayer@@PAPAVnsIFrame@@@Z ; 1127248
?GetFrameProperty@FrameManager@@UAGIPAVnsIFrame@@PAVnsIAtom@@IPAPAX@Z ; 1108504
?GetMedium@GalleyContext@@UAGIPAPAVnsIAtom@@@Z ; 1067954
?GetHAlign@nsBox@@UAGIAAW4Halignment@nsIBox@@@Z ; 1056541
?GetFrameType@nsInlineFrame@@UBGIPAPAVnsIAtom@@@Z ; 1016456
?FirstChild@nsContainerFrame@@UBGIPAVnsIPresContext@@PAVnsIAtom@@PAPAVnsIFrame@@@Z ; 1013405
?DoneRemovingReflowCommands@PresShell@@IAEXXZ ; 997974
??0nsHTMLReflowMetrics@@QAE@PAUnsSize@@I@Z ; 995532
?CancelReflowCommandInternal@PresShell@@UAGIPAVnsIFrame@@PAW4ReflowType@nsIReflowCommand@@AAVnsVoidArray@@@Z ; 995352
?DidReflow@nsFrame@@UAGIPAVnsIPresContext@@H@Z ; 994576
?WillReflow@nsFrame@@UAGIPAVnsIPresContext@@@Z ; 981868
?GetAdditionalChildListName@nsFrame@@UBGIHPAPAVnsIAtom@@@Z ; 940125
?PositionChildViews@nsContainerFrame@@SAXPAVnsIPresContext@@PAVnsIFrame@@@Z ; 929039
?GetFrameType@nsTableRowFrame@@UBGIPAPAVnsIAtom@@@Z ; 886463
?GetCellMap@nsTableFrame@@UBEPAVnsTableCellMap@@XZ ; 864881
?AddRef@nsCaret@@UAGKXZ ; 860201
??0nsBandTrapezoid@@QAE@XZ ; 857622
?Release@nsPresContext@@UAGKXZ ; 824883
?QueryInterface@nsBlockFrame@@UAGIABUnsID@@PAPAX@Z ; 822601
?GetScaledPixelsToTwips@nsPresContext@@UBGIPAM@Z ; 790483
?CanPlaceFloaterNow@nsLineLayout@@QBEHXZ ; 789500
?ScanNormalWhiteSpace_F@nsTextTransformer@@IAEHXZ ; 788356
?GetFlags@nsHTMLReflowCommand@@UAGIPAH@Z ; 784857
?InStrictMode@nsLineLayout@@QAEHXZ ; 752854
?GetMapCellAt@nsCellMap@@IAEPAVCellData@@AAVnsTableCellMap@@HHH@Z ; 751291
?AdjustComputedHeight@nsHTMLReflowState@@IAEXXZ ; 747001
?AddSegment@TextRun@@QAEXHHH@Z ; 716443
?IsPercentageBase@nsFrame@@UBGIAAH@Z ; 716388
?ScanNormalAsciiText_F@nsTextTransformer@@IAEHPAH0@Z ; 709483
?GetBounds@nsBox@@UAGIAAUnsRect@@@Z ; 697698
?AddMargin@nsBox@@SAXAAUnsSize@@ABUnsMargin@@@Z ; 669945
?HashCode@nsVoidKey@@UBEIXZ ; 664743
?FirstChild@nsBlockFrame@@UBGIPAVnsIPresContext@@PAVnsIAtom@@PAPAVnsIFrame@@@Z ; 656636
?GetFrameType@nsTableOuterFrame@@UBGIPAPAVnsIAtom@@@Z ; 655652
?GetColIndex@nsTableCellFrame@@UBEIAAH@Z ; 649145
?AllocateFrame@PresShell@@UAGIIPAPAX@Z ; 642730
?AllocateFrame@FrameArena@@QAEIIPAPAX@Z ; 642730
?GetPresContext@PresShell@@UAGIPAPAVnsIPresContext@@@Z ; 629374
?GetAdditionalChildListName@nsBlockFrame@@UBGIHPAPAVnsIAtom@@@Z ; 624585
??0nsHTMLReflowState@@QAE@PAVnsIPresContext@@ABU0@PAVnsIFrame@@ABUnsSize@@HH@Z ; 605469
?NewPerFrameData@nsLineLayout@@IAEIPAPAUPerFrameData@1@@Z ; 604636
?ApplyLeftMargin@nsLineLayout@@IAEXPAUPerFrameData@1@AAUnsHTMLReflowState@@@Z ; 602780
?ReflowFrame@nsLineLayout@@QAEIPAVnsIFrame@@PAPAV2@AAIPAUnsHTMLReflowMetrics@@AAH@Z ; 602780
?CanPlaceFrame@nsLineLayout@@IAEHPAUPerFrameData@1@ABUnsHTMLReflowState@@HAAUnsHTMLReflowMetrics@@AAI@Z ; 600427
?UseComputedHeight@nsHTMLReflowState@@SAHXZ ; 598274
?PlaceFrame@nsLineLayout@@IAEXPAUPerFrameData@1@AAUnsHTMLReflowMetrics@@@Z ; 597606
?FirstChild@nsFrame@@UBGIPAVnsIPresContext@@PAVnsIAtom@@PAPAVnsIFrame@@@Z ; 574618
?InitializeClasses@LayoutScriptNameSet@@UAGIPAVnsIScriptContext@@@Z ; 573118
?GetFrameType@nsTableFrame@@UBGIPAPAVnsIAtom@@@Z ; 564891
?GetFrame@nsLeafBoxFrame@@UAGIPAPAVnsIFrame@@@Z ; 560045
?ProbePseudoStyleContextFor@nsPresContext@@UAGIPAVnsIContent@@PAVnsIAtom@@PAVnsIStyleContext@@HPAPAV4@@Z ; 553121
?GetMargin@nsBox@@UAGIAAUnsMargin@@@Z ; 553112
?ComputeContainingBlockRectangle@nsHTMLReflowState@@QAEXPAVnsIPresContext@@PBU1@AAH2@Z ; 547675
?SetStyleContext@nsFrame@@UAGIPAVnsIPresContext@@PAVnsIStyleContext@@@Z ; 541789
?GetOffsetFromView@nsFrame@@UBGIPAVnsIPresContext@@AAUnsPoint@@PAPAVnsIView@@@Z ; 531046
?GetColFrame@nsTableFrame@@QAEPAVnsTableColFrame@@H@Z ; 521618
?CalcQuirkContainingBlockHeight@@YAHABUnsHTMLReflowState@@@Z ; 516623
?GetPixelsToTwips@nsPresContext@@UBGIPAM@Z ; 514247
?FreeFrame@PresShell@@UAGIIPAX@Z ; 512938
?FreeFrame@FrameArena@@QAEIIPAX@Z ; 512938
?Free@nsBoxLayoutState@@SAXPAXI@Z ; 505762
??2nsFrame@@SAPAXIPAVnsIPresShell@@@Z ; 505762
?StopAllLoadImagesFor@nsPresContext@@UAGIPAVnsIFrame@@PAX@Z ; 498934
??1nsAutoTextBuffer@@QAE@XZ ; 497984
?FindPostedEventFor@FrameManager@@AAEPAPAUCantRenderReplacedElementEvent@@PAVnsIFrame@@@Z ; 497545
?NotifyDestroyingFrame@FrameManager@@UAGIPAVnsIFrame@@@Z ; 497107
?NotifyDestroyingFrame@PresShell@@UAGIPAVnsIFrame@@@Z ; 497107
??0nsFrame@@IAE@XZ ; 497107
?RemoveAllPropertiesFor@FrameManager@@AAEXPAVnsIPresContext@@PAVnsIFrame@@@Z ; 497107
?Init@nsFrame@@UAGIPAVnsIPresContext@@PAVnsIContent@@PAVnsIFrame@@PAVnsIStyleContext@@2@Z ; 497107
?Destroy@nsFrame@@UAGIPAVnsIPresContext@@@Z ; 497107
?DequeuePostedEventFor@FrameManager@@AAEXPAVnsIFrame@@@Z ; 497107
??1nsFrame@@MAE@XZ ; 497107
?CaptureFrameStateFor@FrameManager@@UAGIPAVnsIPresContext@@PAVnsIFrame@@PAVnsILayoutHistoryState@@W4SpecialStateID@nsIStatefulFrame@@@Z ; 493994
?CaptureFrameState@FrameManager@@UAGIPAVnsIPresContext@@PAVnsIFrame@@PAVnsILayoutHistoryState@@@Z ; 493785
?GetWidth@nsTableColFrame@@QAEHI@Z ; 493248
?PaintChild@nsBoxFrame@@MAEXPAVnsIPresContext@@AAVnsIRenderingContext@@ABUnsRect@@PAVnsIFrame@@W4nsFramePaintLayer@@@Z ; 492608
?GetLookAndFeel@nsPresContext@@UAGIPAPAVnsILookAndFeel@@@Z ; 492434
?PaintChild@nsContainerFrame@@MAEXPAVnsIPresContext@@AAVnsIRenderingContext@@ABUnsRect@@PAVnsIFrame@@W4nsFramePaintLayer@@@Z ; 487664
??4nsBandTrapezoid@@QAEXABUnsRect@@@Z ; 486133
?GetFrameType@nsScrollBoxFrame@@UBGIPAPAVnsIAtom@@@Z ; 484564
?YMost@nsSpaceManager@@UBGIAAH@Z ; 479074
?GetBandData@nsSpaceManager@@UBGIHABUnsSize@@AAUnsBandData@@@Z ; 474712
?GetBandData@nsBlockBandData@@IAEIH@Z ; 474712
?ComputeAvailSpaceRect@nsBlockBandData@@IAEXXZ ; 474712
?GetRect@nsBandTrapezoid@@QBEXAAUnsRect@@@Z ; 474692
?GetChildBox@nsContainerBox@@UAGIPAPAVnsIBox@@@Z ; 472793
?GetAvailableSpace@nsBlockBandData@@QAEIHAAUnsRect@@@Z ; 472433
?GetTableFrame@nsTableFrame@@SGIPAVnsIFrame@@AAPAV1@@Z ; 472054
??0nsAutoTextBuffer@@QAE@XZ ; 467679
?IsPaginated@GalleyContext@@UAGIPAH@Z ; 461340
?GetAvailableSpace@nsBlockReflowState@@QAEXXZ ; 458671
?RestoreFrameStateFor@FrameManager@@UAGIPAVnsIPresContext@@PAVnsIFrame@@PAVnsILayoutHistoryState@@W4SpecialStateID@nsIStatefulFrame@@@Z ; 447180
?RestoreFrameState@FrameManager@@UAGIPAVnsIPresContext@@PAVnsIFrame@@PAVnsILayoutHistoryState@@@Z ; 446958
?GetBorder@nsBox@@UAGIAAUnsMargin@@@Z ; 446796
?SetFrameState@nsFrame@@UAGII@Z ; 440043
??1nsFloaterCacheList@@QAE@XZ ; 437531
?GetLanguageSpecificTransformType@nsPresContext@@UAGIPAW4nsLanguageSpecificTransformType@@@Z ; 437374
??1nsTextTransformer@@QAE@XZ ; 437374
??0nsTextTransformer@@QAE@PAVnsILineBreaker@@PAVnsIWordBreaker@@PAVnsIPresContext@@@Z ; 437374
?IsBlockLevel@nsStyleDisplay@@QBEHXZ ; 433893
?DoesNeedRecalc@nsBox@@UAEHABUnsSize@@@Z ; 426920
?InitAndRestoreFrame@nsCSSFrameConstructor@@IAEIPAVnsIPresContext@@AAVnsFrameConstructorState@@PAVnsIContent@@PAVnsIFrame@@PAVnsIStyleContext@@33@Z ; 425892
?Invalidate@nsFrame@@QBEXPAVnsIPresContext@@ABUnsRect@@H@Z ; 424261
?AddCSSCollapsed@nsIBox@@SAHAAVnsBoxLayoutState@@PAV1@AAH@Z ; 416995
?IsCollapsed@nsBox@@UAGIAAVnsBoxLayoutState@@AAH@Z ; 416995
?Init@nsTextTransformer@@QAEIPAVnsIFrame@@PAVnsIContent@@HH@Z ; 416792
?AdjustComputedWidth@nsHTMLReflowState@@IAEXXZ ; 411439
?GetBorderCollapseStyle@nsTableFrame@@UAEEXZ ; 405758
?GetParentBox@nsBox@@UAGIPAPAVnsIBox@@@Z ; 404653
?GetFrameType@nsAreaFrame@@UBGIPAPAVnsIAtom@@@Z ; 399884
?NextChild@ChildIterator@@QAEXPAPAVnsIContent@@@Z ; 398933
??1TextStyle@nsTextFrame@@QAE@XZ ; 397942
??0TextStyle@nsTextFrame@@QAE@PAVnsIPresContext@@AAVnsIRenderingContext@@PAVnsIStyleContext@@@Z ; 397942
?AddChild@nsFrameItems@@QAEXPAVnsIFrame@@@Z ; 392597
?GetRowIndex@nsTableRowFrame@@UBEHXZ ; 388106
?DestroyFrames@nsFrameList@@QAEXPAVnsIPresContext@@@Z ; 388105
?FreeSpan@nsLineLayout@@IAEXPAUPerSpanData@1@@Z ; 383166
?NewPerSpanData@nsLineLayout@@IAEIPAPAUPerSpanData@1@@Z ; 383166
?IsPercentageAwareReplacedElement@nsLineLayout@@SAHPAVnsIPresContext@@PAVnsIFrame@@@Z ; 381550
?VerticalAlignFrames@nsLineLayout@@IAEXPAUPerSpanData@1@@Z ; 380798
?RelativePositionFrames@nsLineLayout@@IAEXPAUPerSpanData@1@AAUnsRect@@@Z ; 380768
?GetFrameType@nsTableRowGroupFrame@@UBGIPAPAVnsIAtom@@@Z ; 380724
?FinishReflowChild@nsContainerFrame@@SAIPAVnsIFrame@@PAVnsIPresContext@@AAUnsHTMLReflowMetrics@@HHI@Z ; 379804
?GetRowIndex@nsTableCellFrame@@UBEIAAH@Z ; 370252
?CreateGeneratedContentFrame@nsCSSFrameConstructor@@IAEHPAVnsIPresShell@@PAVnsIPresContext@@AAVnsFrameConstructorState@@PAVnsIFrame@@PAVnsIContent@@PAVnsIStyleContext@@PAVnsIAtom@@HPAPAV5@@Z ; 367145
?FindNonTransparentBackground@nsStyleUtil@@SAPBUnsStyleColor@@PAVnsIStyleContext@@H@Z ; 366606
?GetNextInFlow@nsTextFrame@@UBGIPAPAVnsIFrame@@@Z ; 363010
?GetHorizontalInsidePadding@nsHTMLButtonControlFrame@@UBEHPAVnsIPresContext@@MHH@Z ; 360519
?ComputeBlockBoxData@nsHTMLReflowState@@IAEXPAVnsIPresContext@@PBU1@W4nsStyleUnit@@2HH@Z ; 360064
?CalcLineHeight@nsHTMLReflowState@@SAHPAVnsIPresContext@@PAVnsIRenderingContext@@PAVnsIFrame@@@Z ; 353202
?QueryInterface@nsTextFrame@@UAGIABUnsID@@PAPAX@Z ; 350370
?CreateAnonymousFrames@nsCSSFrameConstructor@@IAEIPAVnsIPresShell@@PAVnsIPresContext@@PAVnsIAtom@@AAVnsFrameConstructorState@@PAVnsIContent@@PAVnsIFrame@@AAUnsFrameItems@@@Z ; 349123
?AddMargin@nsBox@@SAXPAVnsIBox@@AAUnsSize@@@Z ; 348917
?IsFrameTreeTooDeep@nsFrame@@QAEHABUnsHTMLReflowState@@AAUnsHTMLReflowMetrics@@@Z ; 347672
?SetNextSibling@nsFrame@@UAGIPAVnsIFrame@@@Z ; 347303
?ConstructFrame@nsCSSFrameConstructor@@IAEIPAVnsIPresShell@@PAVnsIPresContext@@AAVnsFrameConstructorState@@PAVnsIContent@@PAVnsIFrame@@AAUnsFrameItems@@@Z ; 338365
?ConstructFrameInternal@nsCSSFrameConstructor@@IAEIPAVnsIPresShell@@PAVnsIPresContext@@AAVnsFrameConstructorState@@PAVnsIContent@@PAVnsIFrame@@PAVnsIAtom@@HPAVnsIStyleContext@@AAUnsFrameItems@@H@Z ; 337339
?ResolveStyleContext@nsCSSFrameConstructor@@IAEIPAVnsIPresContext@@PAVnsIFrame@@PAVnsIContent@@PAVnsIAtom@@PAPAVnsIStyleContext@@@Z ; 336653
?Reflow@nsTextFrame@@UAGIPAVnsIPresContext@@AAUnsHTMLReflowMetrics@@ABUnsHTMLReflowState@@AAI@Z ; 335141
?SetLeaveAsAscii@nsTextTransformer@@QAEXH@Z ; 335138
?MeasureText@nsTextFrame@@QAEIPAVnsIPresContext@@ABUnsHTMLReflowState@@AAVnsTextTransformer@@PAVnsILineBreaker@@AAUTextStyle@1@AAUTextReflowData@1@@Z ; 335138
?LineIsBreakable@nsLineLayout@@QBEHXZ ; 335138
?AddMargin@nsBoxLayout@@UAEXPAVnsIBox@@AAUnsSize@@@Z ; 331568
?ConstructFrameByTag@nsCSSFrameConstructor@@IAEIPAVnsIPresShell@@PAVnsIPresContext@@AAVnsFrameConstructorState@@PAVnsIContent@@PAVnsIFrame@@PAVnsIAtom@@HPAVnsIStyleContext@@AAUnsFrameItems@@@Z ; 328581
?GetEffectiveColSpan@nsCellMap@@IAEHAAVnsTableCellMap@@HHAAH@Z ; 327672
??4nsPseudoFrames@@QAEAAU0@ABU0@@Z ; 325080
??3nsLineBox@@CAXPAXI@Z ; 320292
?ReflowInlineFrame@nsBlockFrame@@IAEIAAVnsBlockReflowState@@AAVnsLineLayout@@PAVnsLineBox@@PAVnsIFrame@@PAE@Z ; 319893
?IsPercentageAwareFrame@@YAHPAVnsIPresContext@@PAVnsIFrame@@@Z ; 319309
?SetUnionValue@nsStyleCoord@@QAEXABTnsStyleUnion@@W4nsStyleUnit@@@Z ; 314996
?GetSelectionForVisCheck@nsFrame@@IAEIPAVnsIPresContext@@PAPAVnsISelection@@@Z ; 296980
?GetTranslation@nsSpaceManager@@UBGIAAH0@Z ; 289645
?IsLeftToRight@nsTableIterator@@QAEHXZ ; 286915
?ReflowInlineFrame@nsInlineFrame@@IAEIPAVnsIPresContext@@ABUnsHTMLReflowState@@AAUInlineReflowState@1@PAVnsIFrame@@AAI@Z ; 282887
?GetCellAt@nsCellMap@@QAEPAVCellData@@AAVnsTableCellMap@@HH@Z ; 280979
?ReflowChild@nsContainerFrame@@QAEIPAVnsIFrame@@PAVnsIPresContext@@AAUnsHTMLReflowMetrics@@ABUnsHTMLReflowState@@HHIAAI@Z ; 279968
?CreateViewForFrame@nsHTMLContainerFrame@@SAIPAVnsIPresContext@@PAVnsIFrame@@PAVnsIStyleContext@@1H@Z ; 277028
??0nsHTMLReflowState@@QAE@PAVnsIPresContext@@ABU0@PAVnsIFrame@@ABUnsSize@@@Z ; 275507
?TrimTrailingWhiteSpaceIn@nsLineLayout@@IAEHPAUPerSpanData@1@PAH@Z ; 274867
??0nsHTMLReflowState@@QAE@PAVnsIPresContext@@ABU0@PAVnsIFrame@@ABUnsSize@@W4nsReflowReason@@@Z ; 271743
?GetBorderAndPadding@nsBox@@UAGIAAUnsMargin@@@Z ; 265575
?SetCombinedArea@nsLineBox@@QAEXABUnsRect@@@Z ; 263456
?ResolveStyleContextFor@nsPresContext@@UAGIPAVnsIContent@@PAVnsIStyleContext@@HPAPAV3@@Z ; 262875
??0nsContainerFrame@@IAE@XZ ; 262166
??1nsContainerFrame@@MAE@XZ ; 262166
?Init@nsContainerFrame@@UAGIPAVnsIPresContext@@PAVnsIContent@@PAVnsIFrame@@PAVnsIStyleContext@@2@Z ; 262166
?Destroy@nsContainerFrame@@UAGIPAVnsIPresContext@@@Z ; 262166
?Init@nsSplittableFrame@@UAGIPAVnsIPresContext@@PAVnsIContent@@PAVnsIFrame@@PAVnsIStyleContext@@2@Z ; 262166
?IsOnlyWhiteSpace@@YAHPAVnsIContent@@@Z ; 259640
?MaybeFreeData@nsLineBox@@IAEXXZ ; 257044
?PostPlaceLine@nsBlockFrame@@IAEXAAVnsBlockReflowState@@PAVnsLineBox@@ABUnsSize@@@Z ; 253885
?ReflowLine@nsBlockFrame@@IAEIAAVnsBlockReflowState@@PAVnsLineBox@@PAHH@Z ; 253885
?Paint@nsFrame@@UAGIPAVnsIPresContext@@AAVnsIRenderingContext@@ABUnsRect@@W4nsFramePaintLayer@@@Z ; 250788
?ResolvePseudoStyleWithComparator@nsPresContext@@UAGIPAVnsIContent@@PAVnsIAtom@@PAVnsIStyleContext@@HPAVnsICSSPseudoComparator@@PAPAV4@@Z ; 249290
?ResolvePseudoStyleContextFor@nsPresContext@@UAGIPAVnsIContent@@PAVnsIAtom@@PAVnsIStyleContext@@HPAPAV4@@Z ; 248609
?GetFrameType@CanvasFrame@@UBGIPAPAVnsIAtom@@@Z ; 248238
?IsHorizontal@nsSprocketLayout@@MBEHPAVnsIBox@@@Z ; 242915
??0nsISupportsKey@@QAE@PAVnsISupports@@@Z ; 239054
??1nsISupportsKey@@UAE@XZ ; 239054
?DoesNeedRecalc@nsBox@@UAEHH@Z ; 238116
?GetPadding@nsBox@@UAGIAAUnsMargin@@@Z ; 236906
?GetEffectiveColSpan@nsTableFrame@@UBEHABVnsTableCellFrame@@@Z ; 236157
?GetEffectiveColSpan@nsTableCellMap@@QAEHHH@Z ; 236157
?RoundToPixel@nsTableFrame@@SAHHMH@Z ; 232887
?CombinedAreaIntersects@nsLineBox@@QAEHABUnsRect@@@Z ; 230357
?ComputeCollapsedTopMargin@nsBlockReflowContext@@SAHPAVnsIPresContext@@AAUnsHTMLReflowState@@@Z ; 227571
?GetAnonymousContentFor@PresShell@@UAGIPAVnsIContent@@PAPAVnsISupportsArray@@@Z ; 226649
?GetLayoutFlags@nsBoxLayoutState@@UAEXAAI@Z ; 224894
??0nsAbsoluteItems@@QAE@PAVnsIFrame@@@Z ; 223885
?GetColumnWidth@nsTableFrame@@UAEHH@Z ; 222360
?Release@nsSpaceManager@@UAGKXZ ; 219959
?QueryInterface@nsInlineFrame@@UAGIABUnsID@@PAPAX@Z ; 217229
?IsVisibleForPainting@nsFrame@@UAGIPAVnsIPresContext@@AAVnsIRenderingContext@@HPAH@Z ; 216329
?Paint@nsBoxFrame@@UAGIPAVnsIPresContext@@AAVnsIRenderingContext@@ABUnsRect@@W4nsFramePaintLayer@@@Z ; 214352
?GetDefaultFixedFontDeprecated@nsPresContext@@UAEABUnsFont@@XZ ; 209377
?GetDefaultFontDeprecated@nsPresContext@@UAEABUnsFont@@XZ ; 209377
?PaintChildren@nsBoxFrame@@MAEXPAVnsIPresContext@@AAVnsIRenderingContext@@ABUnsRect@@W4nsFramePaintLayer@@@Z ; 207846
?PaintChildren@nsContainerFrame@@MAEXPAVnsIPresContext@@AAVnsIRenderingContext@@ABUnsRect@@W4nsFramePaintLayer@@@Z ; 207139
?GetMinWidth@nsTableColFrame@@QAEHXZ ; 206531
?Reflow@nsInlineFrame@@UAGIPAVnsIPresContext@@AAUnsHTMLReflowMetrics@@ABUnsHTMLReflowState@@AAI@Z ; 204855
?BeginSpan@nsLineLayout@@QAEIPAVnsIFrame@@PBUnsHTMLReflowState@@HH@Z ; 204855
?EndSpan@nsLineLayout@@QAEXPAVnsIFrame@@AAUnsSize@@PAU3@@Z ; 204855
?ReflowFrames@nsInlineFrame@@IAEIPAVnsIPresContext@@ABUnsHTMLReflowState@@AAUInlineReflowState@1@AAUnsHTMLReflowMetrics@@AAI@Z ; 204855
?GetPrimaryFrameFor@FrameManager@@UAGIPAVnsIContent@@PAPAVnsIFrame@@@Z ; 204320
?PlaceTopBottomFrames@nsLineLayout@@IAEXPAUPerSpanData@1@HH@Z ; 202457
?PaintBorder@nsCSSRendering@@SAXPAVnsIPresContext@@AAVnsIRenderingContext@@PAVnsIFrame@@ABUnsRect@@3ABUnsStyleBorder@@PAVnsIStyleContext@@HPAU5@HH@Z ; 197337
?IndexOf@nsLineBox@@QBEHPAVnsIFrame@@@Z ; 197289
?GetNextFrame@nsTableRowGroupFrame@@UAEXPAVnsIFrame@@PAPAV2@@Z ; 194073
?SizeNeedsRecalc@nsBox@@UAEXAAUnsSize@@@Z ; 193747
?GetInset@nsBoxFrame@@UAGIAAUnsMargin@@@Z ; 191140
?GetFrameType@ViewportFrame@@UBGIPAPAVnsIAtom@@@Z ; 190807
?GetFrameState@nsSprocketLayout@@MAEXPAVnsIBox@@AAI@Z ; 189575
?PaintBackground@nsCSSRendering@@SAXPAVnsIPresContext@@AAVnsIRenderingContext@@PAVnsIFrame@@ABUnsRect@@3ABUnsStyleColor@@ABUnsStyleBorder@@HH@Z ; 188410
?GetDefaultBackgroundImage@nsPresContext@@UAGIAAVnsString@@@Z ; 187274
?GetDefaultBackgroundColor@nsPresContext@@UAGIPAI@Z ; 187274
?GetDefaultBackgroundImageAttachment@nsPresContext@@UAGIPAE@Z ; 187274
?GetDefaultBackgroundImageRepeat@nsPresContext@@UAGIPAE@Z ; 187274
?GetDefaultBackgroundImageOffset@nsPresContext@@UAGIPAH0@Z ; 187274
?SetWidth@nsTableColFrame@@QAEXIH@Z ; 185629
?HasVerticalAlignBaseline@nsTableCellFrame@@QAEHXZ ; 185195
?UpdateSpaceManager@nsBlockFrame@@QAEIPAVnsIPresContext@@PAVnsISpaceManager@@@Z ; 184886
??1ChildIterator@@QAE@XZ ; 184371
??0ChildIterator@@QAE@PAVnsIContent@@@Z ; 184371
??1nsTextFrame@@MAE@XZ ; 182003
??0nsTextFrame@@QAE@XZ ; 182003
?CalculateCellActualSize@nsTableRowFrame@@QAEIPAVnsIFrame@@AAH1H@Z ; 181577
?SetParent@nsFrame@@UAGIPBVnsIFrame@@@Z ; 181216
?TreatFrameAsBlock@nsLineLayout@@SAHPAVnsIFrame@@@Z ; 180380
?GetDesiredAscent@nsTableCellFrame@@UAEHXZ ; 179326
?SetTallestCell@nsTableRowFrame@@QAEXHHHPAVnsTableFrame@@PAVnsTableCellFrame@@@Z ; 179188
?GetLayoutFlags@nsBox@@MAEXAAI@Z ; 178600
?AppendFloaters@nsLineBox@@QAEXAAVnsFloaterCacheFreeList@@@Z ; 178316
?EndLineReflow@nsLineLayout@@QAEXXZ ; 178311
?VerticalAlignFrames@nsLineLayout@@QAEXPAVnsLineBox@@AAUnsSize@@AAH@Z ; 178311
?RelativePositionFrames@nsLineLayout@@QAEXAAUnsRect@@@Z ; 178311
?TrimTrailingWhiteSpace@nsLineLayout@@QAEHXZ ; 178311
?BeginLineReflow@nsLineLayout@@QAEXHHHHHH@Z ; 178311
?PlaceLine@nsBlockFrame@@IAEIAAVnsBlockReflowState@@AAVnsLineLayout@@PAVnsLineBox@@PAHH@Z ; 178311
?HorizontalAlignFrames@nsLineLayout@@QAEHAAUnsRect@@HH@Z ; 178311
??1nsLineLayout@@QAE@XZ ; 178311
?DoReflowInlineFrames@nsBlockFrame@@IAEIAAVnsBlockReflowState@@AAVnsLineLayout@@PAVnsLineBox@@PAHPAEHH@Z ; 178311
?FreeFloaters@nsLineBox@@QAEXAAVnsFloaterCacheFreeList@@@Z ; 178311
??0nsLineLayout@@QAE@PAVnsIPresContext@@PAVnsISpaceManager@@PBUnsHTMLReflowState@@H@Z ; 178311
?ReflowInlineFrames@nsBlockFrame@@IAEIAAVnsBlockReflowState@@PAVnsLineBox@@PAHHH@Z ; 178311
?GetTopBlockChild@nsBlockFrame@@QAEPAVnsIFrame@@XZ ; 178049
?LastChild@nsLineBox@@QBEPAVnsIFrame@@XZ ; 176750
?GetPriorAvailWidth@nsTableCellFrame@@UAEHXZ ; 175560
?SlideLine@nsBlockFrame@@IAEXAAVnsBlockReflowState@@PAVnsLineBox@@H@Z ; 174401
?RecoverStateFrom@nsBlockReflowState@@QAEXPAVnsLineBox@@HHPAUnsRect@@@Z ; 174401
?RecoverStateFrom@nsBlockFrame@@IAEXAAVnsBlockReflowState@@PAVnsLineBox@@HPAUnsRect@@@Z ; 174401
?AllocLeafNode@NodeArena@nsDST@@QAEPAXXZ ; 174168
?FreeNode@NodeArena@nsDST@@QAEXPAVLeafNode@2@@Z ; 174122
?PaintOutline@nsCSSRendering@@SAXPAVnsIPresContext@@AAVnsIRenderingContext@@PAVnsIFrame@@ABUnsRect@@3ABUnsStyleBorder@@ABUnsStyleOutline@@PAVnsIStyleContext@@HPAU5@@Z ; 169033
??0nsPseudoFrames@@QAE@XZ ; 168566
?NS_NewTextFrame@@YAIPAVnsIPresShell@@PAPAVnsIFrame@@@Z ; 166818
??_GnsTextFrame@@MAEPAXI@Z ; 166818
?DoReflowInlineFramesAuto@nsBlockFrame@@IAEIAAVnsBlockReflowState@@PAVnsLineBox@@PAHPAEHH@Z ; 166136
?Release@nsFormFrame@@MAGKXZ ; 163061
?Reset@nsPseudoFrames@@QAEXPAU1@@Z ; 162555
?IsDirty@nsBox@@UAGIAAH@Z ; 161991
?AddInset@nsBox@@SAXPAVnsIBox@@AAUnsSize@@@Z ; 161072
?AddBorderAndPadding@nsBox@@SAXPAVnsIBox@@AAUnsSize@@@Z ; 159956
?PropagateDebug@nsBoxFrame@@MAEXAAVnsBoxLayoutState@@@Z ; 158125
?SetInitialChildList@nsContainerFrame@@UAGIPAVnsIPresContext@@PAVnsIAtom@@PAVnsIFrame@@@Z ; 158110
?GetFrameType@BRFrame@@UBGIPAPAVnsIAtom@@@Z ; 157686
?FirstChild@nsAbsoluteContainingBlock@@QBEIPBVnsIFrame@@PAVnsIAtom@@PAPAV2@@Z ; 157595
?SetPageNo@nsSimplePageSequenceFrame@@UAGIH@Z ; 157581
?GetOverflowFrames@nsContainerFrame@@IBEPAVnsIFrame@@PAVnsIPresContext@@H@Z ; 154706
?GetEffectiveRowSpan@nsTableCellMap@@QAEHHH@Z ; 154068
?GetRowSpan@nsCellMap@@IAEHAAVnsTableCellMap@@HHHAAH@Z ; 154068
?GetSize@nsFrame@@UBGIAAUnsSize@@@Z ; 153211
?Next@nsTableIterator@@QAEPAVnsIFrame@@XZ ; 152686
?Release@nsHTMLReflowCommand@@UAGKXZ ; 150137
??0nsFrameConstructorSaveState@@QAE@XZ ; 149342
??1nsFrameConstructorSaveState@@QAE@XZ ; 149342
?Insert@nsDST@@QAEIPAX0PAPAX@Z ; 147233
?GetBorder@nsScrollBoxFrame@@UAGIAAUnsMargin@@@Z ; 144100
?ReflowDirtyLines@nsBlockFrame@@IAEIAAVnsBlockReflowState@@@Z ; 142937
??0nsBlockBandData@@QAE@XZ ; 142937
?Init@nsBlockBandData@@QAEIPAVnsISpaceManager@@ABUnsSize@@@Z ; 142937
??1nsBlockBandData@@QAE@XZ ; 142937
??0nsBlockReflowState@@QAE@ABUnsHTMLReflowState@@PAVnsIPresContext@@PAVnsBlockFrame@@ABUnsHTMLReflowMetrics@@H@Z ; 142937
??1nsBlockReflowState@@QAE@XZ ; 142937
?Reflow@nsBlockFrame@@UAGIPAVnsIPresContext@@AAUnsHTMLReflowMetrics@@ABUnsHTMLReflowState@@AAI@Z ; 142847
?ComputeFinalSize@nsBlockFrame@@MAEXABUnsHTMLReflowState@@AAVnsBlockReflowState@@AAUnsHTMLReflowMetrics@@@Z ; 142817
?BuildFloaterList@nsBlockFrame@@IAEXXZ ; 142575
?GetPrevSiblingFrame@nsHTMLReflowCommand@@UBGIAAPAVnsIFrame@@@Z ; 139742
?GetAscent@nsBoxFrame@@UAGIAAVnsBoxLayoutState@@AAH@Z ; 139145
?ShouldApplyTopMargin@nsBlockFrame@@IAEHAAVnsBlockReflowState@@PAVnsLineBox@@@Z ; 138389
?ComputeBlockAvailSpace@nsBlockReflowState@@QAEXPAVnsIFrame@@IPBUnsStyleDisplay@@AAUnsRect@@@Z ; 138389
?AddCoord@nsSprocketLayout@@MAEXAAHH@Z ; 137034
?GetPrefSize@nsBoxFrame@@UAGIAAVnsBoxLayoutState@@AAUnsSize@@@Z ; 134487
?GetEffectiveRowSpan@nsTableFrame@@UBEHABVnsTableCellFrame@@@Z ; 134072
?NS_NewLineBox@@YAPAVnsLineBox@@PAVnsIPresShell@@PAVnsIFrame@@HH@Z ; 133181
??0nsLineBox@@AAE@PAVnsIFrame@@HH@Z ; 133181
?Cleanup@nsLineBox@@IAEXXZ ; 133181
??2nsLineBox@@CAPAXIPAVnsIPresShell@@@Z ; 133181
??1nsLineBox@@AAE@XZ ; 133181
?IsAutoLayout@nsTableFrame@@UAEHXZ ; 133175
?QueryInterface@nsPresContext@@UAGIABUnsID@@PAPAX@Z ; 132066
?GetMaxSize@nsBoxFrame@@UAGIAAVnsBoxLayoutState@@AAUnsSize@@@Z ; 130389
?ConstructXULFrame@nsCSSFrameConstructor@@IAEIPAVnsIPresShell@@PAVnsIPresContext@@AAVnsFrameConstructorState@@PAVnsIContent@@PAVnsIFrame@@PAVnsIAtom@@HPAVnsIStyleContext@@AAUnsFrameItems@@HAAH@Z ; 130260
?GetCellSpacingY@nsTableFrame@@UAEHXZ ; 130107
?Allocate@StackArena@@QAEIIPAPAX@Z ; 129206
??2nsComputedBoxSize@@SAPAXIAAVnsBoxLayoutState@@@Z ; 129206
?AllocateStackMemory@nsBoxLayoutState@@QAEIIPAPAX@Z ; 129206
?AllocateStackMemory@PresShell@@UAGIIPAPAX@Z ; 129206
?CoordNeedsRecalc@nsBox@@UAEXAAH@Z ; 128848
?PrepareResizeReflow@nsBlockFrame@@IAEIAAVnsBlockReflowState@@@Z ; 128716
?DrainOverflowLines@nsBlockFrame@@IAEHPAVnsIPresContext@@@Z ; 128346
?GetOverflowLines@nsBlockFrame@@IBEPAVnsLineBox@@PAVnsIPresContext@@H@Z ; 128346
?GetPrimaryFrameFor@PresShell@@UBGIPAVnsIContent@@PAPAVnsIFrame@@@Z ; 127726
?GetCellBorder@nsTableCellFrame@@AAEXAAUnsMargin@@PAVnsTableFrame@@@Z ; 127158
?FindNextText@nsLineLayout@@QAEPAVnsIFrame@@PAVnsIPresContext@@PAV2@@Z ; 126788
?GetMinSize@nsBoxFrame@@UAGIAAVnsBoxLayoutState@@AAUnsSize@@@Z ; 126517
?GetPass1MaxElementSize@nsTableCellFrame@@UBE?AUnsSize@@XZ ; 125973
?GetCellSpacingX@nsTableFrame@@UAEHXZ ; 124561
?GetCellInfoAt@nsTableCellMap@@QAEPAVnsTableCellFrame@@HHPAH0@Z ; 124203
?GetCellInfoAt@nsCellMap@@QAEPAVnsTableCellFrame@@AAVnsTableCellMap@@HHPAH1@Z ; 124203
?GetCellInfoAt@nsTableFrame@@QAEPAVnsTableCellFrame@@HHPAH0@Z ; 124186
?GetNumCellsOriginatingInCol@nsTableFrame@@QBEHH@Z ; 123113
?GetNumCellsOriginatingInCol@nsTableCellMap@@QBEHH@Z ; 123113
?IsTableRelated@@YAHEH@Z ; 122612
?ConstructFrameByDisplayType@nsCSSFrameConstructor@@IAEIPAVnsIPresShell@@PAVnsIPresContext@@AAVnsFrameConstructorState@@PBUnsStyleDisplay@@PAVnsIContent@@PAVnsIFrame@@PAVnsIStyleContext@@AAUnsFrameItems@@@Z ; 122248
?IsTableRelated@@YAHPAVnsIAtom@@H@Z ; 120750
??_GnsHTMLContainerFrame@@UAEPAXI@Z ; 119332
??0nsInlineFrame@@IAE@XZ ; 119011
?NS_NewInlineFrame@@YAIPAVnsIPresShell@@PAPAVnsIFrame@@@Z ; 119011
?GetContentRect@nsBox@@UAGIAAUnsRect@@@Z ; 118506
?GetDesiredSize@nsTableCellFrame@@UAE?AUnsSize@@XZ ; 116545
?PullFrame@nsBlockFrame@@IAEIAAVnsBlockReflowState@@PAVnsLineBox@@HAAPAVnsIFrame@@@Z ; 115763
?GetDesWidth@nsTableColFrame@@QAEHXZ ; 111731
?IsSplittable@nsBlockFrame@@UBGIAAI@Z ; 111164
?Paint@nsHTMLContainerFrame@@UAGIPAVnsIPresContext@@AAVnsIRenderingContext@@ABUnsRect@@W4nsFramePaintLayer@@@Z ; 109017
?SetBounds@nsBox@@UAGIAAVnsBoxLayoutState@@ABUnsRect@@@Z ; 108480
?GetPctWidth@nsTableColFrame@@QAEHXZ ; 107498
?GetFrameForPoint@nsTableRowFrame@@UAGIPAVnsIPresContext@@ABUnsPoint@@W4nsFramePaintLayer@@PAPAVnsIFrame@@@Z ; 107492
?GetMaximumWidth@nsTableCellFrame@@UBEHXZ ; 103727
?AttributeChanged@nsGfxScrollFrameInner@@UAGIPAVnsIDocument@@PAVnsIContent@@HPAVnsIAtom@@H@Z ; 102803
?GetFixWidth@nsTableColFrame@@QAEHXZ ; 100080
?GetColCount@nsTableFrame@@UAEHXZ ; 99928
?GetFirstFrame@nsTableRowGroupFrame@@UAEPAVnsIFrame@@XZ ; 97095
?GetFlex@nsBoxFrame@@UAGIAAVnsBoxLayoutState@@AAH@Z ; 96655
?GetAdjacent@nsBoxSizeListNodeImpl@@UAEPAVnsBoxSizeList@@XZ ; 96103
?SetPrimaryFrameFor@FrameManager@@UAGIPAVnsIContent@@PAVnsIFrame@@@Z ; 95699
?BoundsCheck@nsBox@@SAXAAUnsSize@@00@Z ; 95362
?MidPointDivide@QBCurve@@QAEXPAV1@0@Z ; 93780
?ConstructInline@nsCSSFrameConstructor@@IAEIPAVnsIPresShell@@PAVnsIPresContext@@AAVnsFrameConstructorState@@PBUnsStyleDisplay@@PAVnsIContent@@PAVnsIFrame@@PAVnsIStyleContext@@H5PAPAV7@7@Z ; 91820
?ProcessInlineChildren@nsCSSFrameConstructor@@IAEIPAVnsIPresShell@@PAVnsIPresContext@@AAVnsFrameConstructorState@@PAVnsIContent@@PAVnsIFrame@@HAAUnsFrameItems@@PAH@Z ; 91820
?AddLargestSize@nsSprocketLayout@@MAEXAAUnsSize@@ABU2@H@Z ; 90173
?SetLargestSize@nsSprocketLayout@@MAEXAAUnsSize@@ABU2@H@Z ; 90173
?DrawSide@nsCSSRendering@@KAXAAVnsIRenderingContext@@HEIIABUnsRect@@1HHPAU3@@Z ; 89915
?GetHAlign@nsBoxFrame@@UAGIAAW4Halignment@nsIBox@@@Z ; 89907
?GetVAlign@nsBoxFrame@@UAGIAAW4Valignment@nsIBox@@@Z ; 89907
?MakeSide@nsCSSRendering@@KAHQAUnsPoint@@AAVnsIRenderingContext@@HABUnsRect@@2HHMH@Z ; 89815
?QueryInterface@nsTableOuterFrame@@UAGIABUnsID@@PAPAX@Z ; 89417
?HasDirtyChildren@nsBox@@UAGIAAH@Z ; 89137
?AlignBlockHorizontally@nsBlockReflowContext@@QAEXHAAUnsBlockHorizontalAlign@@@Z ; 88549
?GetFrameType@nsTableColFrame@@UBGIPAPAVnsIAtom@@@Z ; 88325
?HashCode@nsTransitionKey@@UBEIXZ ; 88303
??0nsTransitionKey@@QAE@IPAVnsIAtom@@@Z ; 88303
?SetLayoutFlags@nsBoxLayoutState@@UAEXABI@Z ; 87959
?SubDivide@QBCurve@@QAEXPAVnsIRenderingContext@@QAUnsPoint@@PAH@Z ; 87368
?Paint@nsTextFrame@@UAGIPAVnsIPresContext@@AAVnsIRenderingContext@@ABUnsRect@@W4nsFramePaintLayer@@@Z ; 87332
?GetDocument@PresShell@@UAGIPAPAVnsIDocument@@@Z ; 86224
?GetCurrentEventFrame@PresShell@@AAEPAVnsIFrame@@XZ ; 85883
?TrimTrailingWhiteSpace@nsTextFrame@@UAGIPAVnsIPresContext@@AAVnsIRenderingContext@@AAH@Z ; 85830
?Release@nsMonumentLayout@@UAGKXZ ; 85795
?AddRef@nsMonumentLayout@@UAGKXZ ; 85795
?ReflowBlock@nsBlockReflowContext@@QAEIPAVnsIFrame@@ABUnsRect@@HHHAAUnsMargin@@AAI@Z ; 85515
?DoReflowBlock@nsBlockReflowContext@@IAEIAAUnsHTMLReflowState@@W4nsReflowReason@@PAVnsIFrame@@ABUnsRect@@HHHAAUnsMargin@@AAI@Z ; 85515
??0nsBlockReflowContext@@QAE@PAVnsIPresContext@@ABUnsHTMLReflowState@@HH@Z ; 85515
?GetDisplayNonTextSelection@PresShell@@UAGIPAH@Z ; 85435
?QueryInterface@PresShell@@UAGIABUnsID@@PAPAX@Z ; 85171
?Equals@nsTransitionKey@@UBEHPBVnsHashKey@@@Z ; 85087
?GetLinkHandler@nsPresContext@@UAGIPAPAVnsILinkHandler@@@Z ; 84998
?DrawLine@nsCSSRendering@@KAXAAVnsIRenderingContext@@HHHHPAUnsRect@@@Z ; 84479
?CalcCellAvailWidth@@YAHAAVnsTableFrame@@AAVnsTableCellFrame@@H@Z ; 82940
?Clear@BandList@nsSpaceManager@@QAEXXZ ; 82553
?ClearFrameInfo@nsSpaceManager@@IAEXXZ ; 82553
??0BandRect@nsSpaceManager@@QAE@HHHHPAVnsIFrame@@@Z ; 82011
??1BandRect@nsSpaceManager@@QAE@XZ ; 82011
?SetCarriedOutBottomMargin@nsLineBox@@QAEXH@Z ; 81739
?PlaceBlock@nsBlockReflowContext@@QAEHHABUnsMargin@@PAHAAUnsRect@@2@Z ; 81739
?ReflowBlockFrame@nsBlockFrame@@IAEIAAVnsBlockReflowState@@PAVnsLineBox@@PAH@Z ; 81739
??0nsStyleCoord@@QAE@ABV0@@Z ; 81558
?AddCSSPrefSize@nsIBox@@SAHAAVnsBoxLayoutState@@PAV1@AAUnsSize@@@Z ; 81078
?IsVisibleForPainting@nsBlockFrame@@UAGIPAVnsIPresContext@@AAVnsIRenderingContext@@HPAH@Z ; 80666
?Paint@nsBlockFrame@@UAGIPAVnsIPresContext@@AAVnsIRenderingContext@@ABUnsRect@@W4nsFramePaintLayer@@@Z ; 79805
?PaintChildren@nsBlockFrame@@MAEXPAVnsIPresContext@@AAVnsIRenderingContext@@ABUnsRect@@W4nsFramePaintLayer@@@Z ; 79805
?GetLayoutManager@nsContainerBox@@UAGIPAPAVnsIBoxLayout@@@Z ; 77864
?FindPrimaryFrameFor@nsCSSFrameConstructor@@UAGIPAVnsIPresContext@@PAVnsIFrameManager@@PAVnsIContent@@PAPAVnsIFrame@@PAUnsFindFrameHint@@@Z ; 77562
??0nsSpaceManager@@QAE@PAVnsIFrame@@@Z ; 77022
??_EnsSpaceManager@@MAEPAXI@Z ; 77022
??0BandList@nsSpaceManager@@QAE@XZ ; 77022
??1nsSpaceManager@@MAE@XZ ; 77022
?AddInset@nsBoxLayout@@UAEXPAVnsIBox@@AAUnsSize@@@Z ; 76975
?AddBorderAndPadding@nsBoxLayout@@UAEXPAVnsIBox@@AAUnsSize@@@Z ; 76975
??1nsHTMLValue@@QAE@XZ ; 76608
?Reset@nsHTMLValue@@QAEXXZ ; 76608
??0nsHTMLValue@@QAE@W4nsHTMLUnit@@@Z ; 76608
?ConvertToTwoNode@nsDST@@AAEPAVTwoNode@1@PAPAVLeafNode@1@@Z ; 76529
?AllocTwoNode@NodeArena@nsDST@@QAEPAXXZ ; 76529
?FreeNode@NodeArena@nsDST@@QAEXPAVTwoNode@2@@Z ; 76467
?QueryInterface@nsSpaceManager@@UAGIABUnsID@@PAPAX@Z ; 76101
?GetOption@nsListControlFrame@@SAPAVnsIDOMHTMLOptionElement@@AAVnsIDOMHTMLCollection@@H@Z ; 75970
?GetTallestCell@nsTableRowFrame@@QBEHXZ ; 75486
?QueryInterface@nsBoxFrame@@UAGIABUnsID@@PAPAX@Z ; 75114
?Paint@nsLeafFrame@@UAGIPAVnsIPresContext@@AAVnsIRenderingContext@@ABUnsRect@@W4nsFramePaintLayer@@@Z ; 73742
?First@nsTableIterator@@QAEPAVnsIFrame@@XZ ; 73548
?Init@nsTableIterator@@IAEXPAVnsIFrame@@W4nsTableIteration@@@Z ; 73548
?AddCSSMaxSize@nsIBox@@SAHAAVnsBoxLayoutState@@PAV1@AAUnsSize@@@Z ; 73011
?GetVerticalMarginBorderPadding@@YAHPBUnsHTMLReflowState@@@Z ; 72594
?AddCSSMinSize@nsIBox@@SAHAAVnsBoxLayoutState@@PAV1@AAUnsSize@@@Z ; 72505
?ComputeWordFragmentWidth@nsTextFrame@@QAEHPAVnsIPresContext@@PAVnsILineBreaker@@AAVnsLineLayout@@ABUnsHTMLReflowState@@PAVnsIFrame@@PAVnsIContent@@PAVnsITextContent@@PAHPBGAAII@Z ; 71931
?GetFrameType@nsImageFrame@@UBGIPAPAVnsIAtom@@@Z ; 71886
?GetBorderPadding@nsTableFrame@@QBE?AUnsMargin@@ABUnsHTMLReflowState@@@Z ; 71746
?GetDebugBoxAt@nsBox@@UAGIABUnsPoint@@PAPAVnsIBox@@@Z ; 70814
?AddInset@nsBox@@UAEXAAUnsSize@@@Z ; 70702
?FrameStartsCounterScope@nsBlockFrame@@IAEHPAVnsIFrame@@@Z ; 70584
?RenumberLists@nsBlockFrame@@IAEXPAVnsIPresContext@@@Z ; 70464
?SyncLayout@nsBox@@UAEIAAVnsBoxLayoutState@@@Z ; 70202
?GetSkipSides@nsTableOuterFrame@@MBEHXZ ; 70027
?GetFrameForPoint@nsFrame@@UAGIPAVnsIPresContext@@ABUnsPoint@@W4nsFramePaintLayer@@PAPAVnsIFrame@@@Z ; 69725
?AddBorderAndPadding@nsBox@@UAEXAAUnsSize@@@Z ; 69586
?FixUp@nsTableCellReflowState@@QAEXABUnsSize@@@Z ; 68993
?SetDesiredSize@nsTableCellFrame@@UAEXABUnsHTMLReflowMetrics@@@Z ; 68783
?Reflow@nsTableCellFrame@@UAGIPAVnsIPresContext@@AAUnsHTMLReflowMetrics@@ABUnsHTMLReflowState@@AAI@Z ; 68783
?SetPriorAvailWidth@nsTableCellFrame@@UAEXH@Z ; 68783
?GetClientRect@nsBox@@UAGIAAUnsRect@@@Z ; 68358
?GetOptionAsContent@nsListControlFrame@@SAPAVnsIContent@@PAVnsIDOMHTMLCollection@@H@Z ; 68236
??0nsTableIterator@@QAE@PAVnsIPresContext@@AAVnsIFrame@@W4nsTableIteration@@@Z ; 67922
?GetCurrentSpanCount@nsLineLayout@@QBEHXZ ; 67690
?SplitLine@nsBlockFrame@@IAEIAAVnsBlockReflowState@@AAVnsLineLayout@@PAVnsLineBox@@PAVnsIFrame@@@Z ; 67690
??0nsComputedBoxSize@@QAE@XZ ; 65695
?Clear@nsComputedBoxSize@@QAEXXZ ; 65695
??0nsTableCellReflowState@@QAE@PAVnsIPresContext@@ABUnsHTMLReflowState@@PAVnsIFrame@@ABUnsSize@@W4nsReflowReason@@@Z ; 65242
?GetEntryFor@UndisplayedMap@@IAEPAPAUPLHashEntry@@PAVnsIContent@@@Z ; 64934
?QueryInterface@nsTableCellFrame@@UAGIABUnsID@@PAPAX@Z ; 64610
?Clear@nsBoxSize@@QAEXXZ ; 64207
??0nsBoxSize@@QAE@XZ ; 63836
?SetFocus@nsListControlFrame@@UAEXHH@Z ; 63266
?MapBorderPadding@nsTableCellFrame@@IAEXPAVnsIPresContext@@@Z ; 63221
?MapVAlignAttribute@nsTableCellFrame@@IAEXPAVnsIPresContext@@PAVnsTableFrame@@@Z ; 63221
?DidSetStyleContext@nsTableCellFrame@@MAGIPAVnsIPresContext@@@Z ; 63221
?GetCellPadding@nsTableFrame@@UAEHXZ ; 63221
?MapHTMLBorderStyle@nsTableCellFrame@@IAEXPAVnsIPresContext@@AAUnsStyleBorder@@PAVnsTableFrame@@@Z ; 63221
?ComputeChildsNextPosition@nsSprocketLayout@@MAEXPAVnsIBox@@0AAH111ABUnsRect@@2HH@Z ; 63155
?AddFrames@nsBlockFrame@@IAEIPAVnsIPresContext@@PAVnsIFrame@@1@Z ; 62950
?FindFrameWithContent@nsCSSFrameConstructor@@IAEPAVnsIFrame@@PAVnsIPresContext@@PAV2@PAVnsIContent@@2PAUnsFindFrameHint@@@Z ; 62842
?CreateNextInFlow@nsHTMLContainerFrame@@SAIPAVnsIPresContext@@PAVnsIFrame@@1AAPAV3@@Z ; 62734
?SetFrameProperty@FrameManager@@UAGIPAVnsIFrame@@PAVnsIAtom@@PAXP6AXPAVnsIPresContext@@012@Z@Z ; 62717
?HaveFirstLetterStyle@nsCSSFrameConstructor@@KAHPAVnsIPresContext@@PAVnsIContent@@PAVnsIStyleContext@@@Z ; 61739
?IsContentSelected@nsListControlFrame@@IAEHPAVnsIContent@@@Z ; 60802
?HaveSpecialBlockStyle@nsCSSFrameConstructor@@KAXPAVnsIPresContext@@PAVnsIContent@@PAVnsIStyleContext@@PAH3@Z ; 60756
?HaveFirstLineStyle@nsCSSFrameConstructor@@KAHPAVnsIPresContext@@PAVnsIContent@@PAVnsIStyleContext@@@Z ; 60756
?GetParentFrame@nsCSSFrameConstructor@@IAEIPAVnsIPresShell@@PAVnsIPresContext@@AAUnsTableCreator@@AAVnsIFrame@@PAVnsIAtom@@AAVnsFrameConstructorState@@AAPAV5@AAH@Z ; 60513
?SetInitialChildList@nsBlockFrame@@UAGIPAVnsIPresContext@@PAVnsIAtom@@PAVnsIFrame@@@Z ; 60151
?NeedsRecalc@nsBoxFrame@@UAGIXZ ; 60085
?Paint@nsTableCellFrame@@UAGIPAVnsIPresContext@@AAVnsIRenderingContext@@ABUnsRect@@W4nsFramePaintLayer@@@Z ; 59631
?GetCollapseOffset@nsTableCellFrame@@QAEXPAVnsIPresContext@@AAUnsPoint@@@Z ; 59631
?GetNext@nsHTMLReflowCommand@@UAGIAAPAVnsIFrame@@H@Z ; 59461
?GetFirstLetterStyle@nsBlockFrame@@IAEPAVnsIStyleContext@@PAVnsIPresContext@@@Z ; 59396
?DestroyFrames@nsAbsoluteContainingBlock@@QAEXPAVnsIFrame@@PAVnsIPresContext@@@Z ; 59396
??1nsBlockFrame@@MAE@XZ ; 59396
?Destroy@nsBlockFrame@@UAGIPAVnsIPresContext@@@Z ; 59396
?DeleteLineList@nsLineBox@@SAXPAVnsIPresContext@@PAV1@@Z ; 59396
??0nsBlockFrame@@IAE@XZ ; 59396
?Init@nsBlockFrame@@UAGIPAVnsIPresContext@@PAVnsIContent@@PAVnsIFrame@@PAVnsIStyleContext@@2@Z ; 59396
?EndLayout@nsBox@@MAGIAAVnsBoxLayoutState@@@Z ; 58820
?Layout@nsBox@@UAGIAAVnsBoxLayoutState@@@Z ; 58820
?ResetTallestCell@nsTableRowFrame@@QAEXH@Z ; 58497
??_EnsBlockFrame@@MAEPAXI@Z ; 58442
?GetPadding@nsTableFrame@@SA?AUnsMargin@@ABUnsHTMLReflowState@@PBVnsTableCellFrame@@@Z ; 58375
?VerticallyAlignChild@nsTableCellFrame@@UAEXPAVnsIPresContext@@ABUnsHTMLReflowState@@H@Z ; 58375
?ComputeTotalWordWidth@nsTextFrame@@QAEHPAVnsIPresContext@@PAVnsILineBreaker@@AAVnsLineLayout@@ABUnsHTMLReflowState@@PAVnsIFrame@@HPAGII@Z ; 57248
?IsSameImageRequest@nsFrameImageLoader@@UAGIABVnsString@@PBIPBUnsSize@@PAH@Z ; 56918
?GetCarriedOutBottomMargin@nsLineBox@@QBEHXZ ; 56650
?RecoverVerticalMargins@nsBlockReflowState@@QAEXPAVnsLineBox@@HPAH1@Z ; 56650
?PushFloaterContainingBlock@nsFrameConstructorState@@QAEXPAVnsIFrame@@AAVnsFrameConstructorSaveState@@HH@Z ; 56026
?PrepareInitialReflow@nsBlockFrame@@IAEIAAVnsBlockReflowState@@@Z ; 55993
?NS_NewBlockFrame@@YAIPAVnsIPresShell@@PAPAVnsIFrame@@I@Z ; 54840
?SetColumnWidth@nsTableFrame@@UAEXHH@Z ; 54367
?TableProcessChild@nsCSSFrameConstructor@@IAEIPAVnsIPresShell@@PAVnsIPresContext@@AAVnsFrameConstructorState@@AAVnsIContent@@PAVnsIFrame@@PAVnsIAtom@@PAVnsIStyleContext@@AAUnsTableCreator@@AAUnsFrameItems@@AAPAV6@@Z ; 54339
?FirstChild@nsTableFrame@@UBGIPAVnsIPresContext@@PAVnsIAtom@@PAPAVnsIFrame@@@Z ; 54258
?FirstChild@nsTableOuterFrame@@UBGIPAVnsIPresContext@@PAVnsIAtom@@PAPAVnsIFrame@@@Z ; 53998
?GetHeightOfRowsSpannedBelowFirst@@YAHAAVnsTableCellFrame@@AAVnsTableFrame@@@Z ; 53880
?PaintChildren@nsTableRowFrame@@UAEXPAVnsIPresContext@@AAVnsIRenderingContext@@ABUnsRect@@W4nsFramePaintLayer@@@Z ; 53472
?Paint@nsTableRowFrame@@UAGIPAVnsIPresContext@@AAVnsIRenderingContext@@ABUnsRect@@W4nsFramePaintLayer@@@Z ; 53472
?SyncLayout@nsBoxFrame@@UAEIAAVnsBoxLayoutState@@@Z ; 53442
?GetSelectionController@nsFrame@@UAGIPAVnsIPresContext@@PAPAVnsISelectionController@@@Z ; 53212
?GetPrevInFlow@nsContinuingTextFrame@@UBGIPAPAVnsIFrame@@@Z ; 52877
?OrderRowGroups@nsTableFrame@@QAEXAAVnsVoidArray@@AAIPAPAVnsIFrame@@PAPAVnsTableRowGroupFrame@@3@Z ; 52705
??0nsStyleCoord@@QAE@H@Z ; 51955
?GetDisplaySelection@PresShell@@UAGIPAF@Z ; 50835
?GetSkipSides@nsTableRowGroupFrame@@MBEHXZ ; 50235
?PullFrame@nsBlockFrame@@IAEIAAVnsBlockReflowState@@PAVnsLineBox@@PAPAV3@HHAAPAVnsIFrame@@AAH@Z ; 49996
?GetAdditionalChildListName@nsTableFrame@@UBGIHPAPAVnsIAtom@@@Z ; 49140
?FreeTree@nsDST@@AAEXPAVLeafNode@1@@Z ; 49102
?GetAdditionalChildListName@nsTableOuterFrame@@UBGIHPAPAVnsIAtom@@@Z ; 48880
?BeginLayout@nsBoxFrame@@UAGIAAVnsBoxLayoutState@@@Z ; 47204
?SetSmallestSize@nsSprocketLayout@@MAEXAAUnsSize@@ABU2@H@Z ; 46861
?AddSmallestSize@nsSprocketLayout@@MAEXAAUnsSize@@ABU2@H@Z ; 46861
?GetFirstNode@UndisplayedMap@@QAEPAVUndisplayedNode@@PAVnsIContent@@@Z ; 46680
?WillCauseReflow@PresShell@@IAEIXZ ; 45527
?DidCauseReflow@PresShell@@IAEIXZ ; 45527
?GetFrameForPoint@nsBlockFrame@@UAGIPAVnsIPresContext@@ABUnsPoint@@W4nsFramePaintLayer@@PAPAVnsIFrame@@@Z ; 45213
?GetAdditionalStyleContext@nsFrame@@UBGIHPAPAVnsIStyleContext@@@Z ; 44820
?ReResolveStyleContext@FrameManager@@AAEXPAVnsIPresContext@@PAVnsIFrame@@PAVnsIStyleContext@@PAVnsIContent@@HPAVnsIAtom@@AAVnsStyleChangeList@@HAAH@Z ; 44698
?GetCOLSAttribute@BasicTableLayoutStrategy@@UBEHXZ ; 44644
?OnDataAvailable@nsImageFrame@@UAGIPAVimgIRequest@@PAVnsIPresContext@@PAVgfxIImageFrame@@PBUnsRect@@@Z ; 44597
?OnDataAvailable@nsImageListener@@UAGIPAVimgIRequest@@PAVnsISupports@@PAVgfxIImageFrame@@PBUnsRect@@@Z ; 44597
?GetColInfoAt@nsTableCellMap@@QAEPAUnsColInfo@@H@Z ; 43074
?SetMapCellAt@nsCellMap@@IAEXAAVnsTableCellMap@@AAVCellData@@HHH@Z ; 42817
??0CellData@@QAE@PAVnsTableCellFrame@@@Z ; 42817
?PlaceChild@nsTableRowGroupFrame@@IAEXPAVnsIPresContext@@AAUnsRowGroupReflowState@@PAVnsIFrame@@AAUnsHTMLReflowMetrics@@@Z ; 42231
?Reflow@nsTableRowFrame@@UAGIPAVnsIPresContext@@AAUnsHTMLReflowMetrics@@ABUnsHTMLReflowState@@AAI@Z ; 42161
?CalcTallestCell@nsTableRowFrame@@QAEXXZ ; 42136
?ProcessChildren@nsCSSFrameConstructor@@IAEIPAVnsIPresShell@@PAVnsIPresContext@@AAVnsFrameConstructorState@@PAVnsIContent@@PAVnsIFrame@@HAAUnsFrameItems@@HPAUnsTableCreator@@@Z ; 41882
?GetTwipsToPixels@nsPresContext@@UBGIPAM@Z ; 41204
?GetCursor@nsFrame@@UAGIPAVnsIPresContext@@AAUnsPoint@@AAH@Z ; 41018
?CreateContinuationFor@nsBlockFrame@@MAEIAAVnsBlockReflowState@@PAVnsLineBox@@PAVnsIFrame@@AAH@Z ; 40583
?SplitLineTo@nsLineLayout@@QAEXH@Z ; 40513
?NewLineBox@nsBlockReflowState@@QAEPAVnsLineBox@@PAVnsIFrame@@HH@Z ; 40513
?PositionFrameView@nsContainerFrame@@SAXPAVnsIPresContext@@PAVnsIFrame@@PAVnsIView@@@Z ; 39570
?GetCellAt@nsTableCellMap@@QAEPAVCellData@@HH@Z ; 39241
?CreateContinuingFrame@nsCSSFrameConstructor@@UAGIPAVnsIPresShell@@PAVnsIPresContext@@PAVnsIFrame@@2PAPAV4@@Z ; 39205
?ReflowChildren@nsTableRowFrame@@MAGIPAVnsIPresContext@@AAUnsHTMLReflowMetrics@@ABUnsHTMLReflowState@@AAVnsTableFrame@@AAIH@Z ; 38410
?ScanPreAsciiData_F@nsTextTransformer@@IAEHPAH0@Z ; 38299
?RowIsSpannedInto@nsTableCellMap@@QAEHH@Z ; 38274
?RowIsSpannedInto@nsTableFrame@@QAEHH@Z ; 38274
?RowIsSpannedInto@nsCellMap@@QAEHAAVnsTableCellMap@@H@Z ; 38274
?GrowRow@nsCellMap@@IAEXAAVnsVoidArray@@H@Z ; 38162
?Redraw@nsBox@@UAGIAAVnsBoxLayoutState@@PBUnsRect@@H@Z ; 37065
?GetCount@nsBoxSizeListImpl@@UAEHXZ ; 37065
?DoLayout@nsContainerBox@@UAGIAAVnsBoxLayoutState@@@Z ; 36957
?DoLayout@nsBoxFrame@@UAGIAAVnsBoxLayoutState@@@Z ; 36957
?AttributeChanged@PresShell@@UAGIPAVnsIDocument@@PAVnsIContent@@HPAVnsIAtom@@H@Z ; 36953
?AttributeChanged@nsCSSFrameConstructor@@UAGIPAVnsIPresContext@@PAVnsIContent@@HPAVnsIAtom@@H@Z ; 36953
?GetFlex@nsBox@@UAGIAAVnsBoxLayoutState@@AAH@Z ; 36657
?Release@nsImageListener@@UAGKXZ ; 36629
?Reflow@nsTableColFrame@@UAGIPAVnsIPresContext@@AAUnsHTMLReflowMetrics@@ABUnsHTMLReflowState@@AAI@Z ; 36398
?AddCSSFlex@nsIBox@@SAHAAVnsBoxLayoutState@@PAV1@AAH@Z ; 35983
?GetDefaultFlex@nsBox@@MAEHAAH@Z ; 35983
?ZeroAutoMargin@nsTableOuterFrame@@SAXAAUnsHTMLReflowState@@AAUnsMargin@@@Z ; 35896
?FixAutoMargins@@YAXHHAAUnsHTMLReflowState@@@Z ; 35896
?RelayoutDirtyChild@nsBox@@UAGIAAVnsBoxLayoutState@@PAVnsIBox@@@Z ; 35715
?GetContentOf@nsBoxFrame@@UAEIPAPAVnsIContent@@@Z ; 35424
?SyncFrameViewAfterReflow@nsContainerFrame@@SAXPAVnsIPresContext@@PAVnsIFrame@@PAVnsIView@@PBUnsRect@@I@Z ; 35420
?SetPass1MaxElementSize@nsTableCellFrame@@UAEXHABUnsSize@@@Z ; 34575
?SetMaximumWidth@nsTableCellFrame@@UAEXH@Z ; 34575
?CalcBorderBoxHeight@nsTableFrame@@QAEHPAVnsIPresContext@@ABUnsHTMLReflowState@@@Z ; 34434
?GetSkipSides@nsInlineFrame@@MBEHXZ ; 33743
?GrowTo@nsAutoTextBuffer@@QAEIHH@Z ; 33526
?GetImageMap@nsImageFrame@@IAEPAVnsImageMap@@PAVnsIPresContext@@@Z ; 33241
?FindImageMap@nsImageMapUtils@@SAIPAVnsIDocument@@ABVnsAString@@PAPAVnsIDOMHTMLMapElement@@@Z ; 32811
?QueryInterface@nsGridLayout@@UAGIABUnsID@@PAPAX@Z ; 32758
?RecordWordFrame@nsLineLayout@@QAEXPAVnsIFrame@@@Z ; 32500
?Reflow@BRFrame@@UAGIPAVnsIPresContext@@AAUnsHTMLReflowMetrics@@ABUnsHTMLReflowState@@AAI@Z ; 32355
?IsScrollable@nsCSSFrameConstructor@@IAEHPAVnsIPresContext@@PBUnsStyleDisplay@@@Z ; 32250
?ForgetWordFrame@nsLineLayout@@QAEXPAVnsIFrame@@@Z ; 32236
?GetRowSpan@nsTableCellFrame@@UAEHXZ ; 32179
?GetColSpan@nsTableCellFrame@@UAEHXZ ; 32179
?SetColIndex@nsTableCellFrame@@UAEIH@Z ; 32163
?InitCellFrame@nsTableCellFrame@@QAEXH@Z ; 32163
?GetRowSpanForNewCell@nsCellMap@@IAEHAAVnsTableCellFrame@@HAAH@Z ; 32163
?AppendCell@nsCellMap@@QAEHAAVnsTableCellMap@@AAVnsTableCellFrame@@HH@Z ; 32163
?GetColSpanForNewCell@nsCellMap@@IAEHAAVnsTableCellFrame@@HHAAH@Z ; 32163
?GetParentStyleContextProvider@nsFrame@@UAGIPAVnsIPresContext@@PAPAVnsIFrame@@AAW4nsContextProviderRelationship@@@Z ; 32159
?CreateTableCellFrame@nsTableCreator@@UAEIPAPAVnsIFrame@@@Z ; 31882
??_EnsTableCellFrame@@UAEPAXI@Z ; 31882
?ConstructTableCellFrame@nsCSSFrameConstructor@@IAEIPAVnsIPresShell@@PAVnsIPresContext@@AAVnsFrameConstructorState@@PAVnsIContent@@PAVnsIFrame@@PAVnsIStyleContext@@AAUnsTableCreator@@HAAUnsFrameItems@@AAPAV6@8AAH@Z ; 31882
??0nsTableCellFrame@@QAE@XZ ; 31882
?CreateTableCellInnerFrame@nsTableCreator@@UAEIPAPAVnsIFrame@@@Z ; 31882
?NS_NewTableCellFrame@@YAIPAVnsIPresShell@@PAPAVnsIFrame@@@Z ; 31882
??1nsTableCellFrame@@UAE@XZ ; 31882
?Init@nsTableCellFrame@@UAGIPAVnsIPresContext@@PAVnsIContent@@PAVnsIFrame@@PAVnsIStyleContext@@2@Z ; 31882
?Layout@nsSprocketLayout@@UAGIPAVnsIBox@@AAVnsBoxLayoutState@@@Z ; 31440
?AttributeChanged@nsFrame@@UAGIPAVnsIPresContext@@PAVnsIContent@@HPAVnsIAtom@@H@Z ; 31097
?IsAutoWidth@nsTableOuterFrame@@SAHAAVnsIFrame@@PAH@Z ; 30732
?IsAutoWidth@nsTableFrame@@QAEHPAH@Z ; 30727
?GetCellFrame@nsCellMap@@QBEPAVnsTableCellFrame@@HHAAVCellData@@H@Z ; 30716
?Clear@nsStyleChangeList@@QAEXXZ ; 30567
?GetHorBorderPaddingWidth@@YAHABUnsHTMLReflowState@@PAVnsTableFrame@@@Z ; 30458
?HasPctValue@@YAHPAVnsIFrame@@@Z ; 30439
??0nsAutoIndexBuffer@@QAE@XZ ; 30305
?LastChild@nsFrameList@@QBEPAVnsIFrame@@XZ ; 30245
?GetFrameType@nsTableColGroupFrame@@UBGIPAPAVnsIAtom@@@Z ; 29980
?CanAllocate@@YAHHHPAVnsTableColFrame@@@Z ; 29956
?GrowTo@nsAutoIndexBuffer@@QAEIH@Z ; 29876
?IsVisibleForPainting@nsTextFrame@@UAGIPAVnsIPresContext@@AAVnsIRenderingContext@@HPAH@Z ; 29163
?GetTextInfoForPainting@nsTextFrame@@QAEIPAVnsIPresContext@@AAVnsIRenderingContext@@PAPAVnsIPresShell@@PAPAVnsISelectionController@@AAH44AAFPAPAVnsILineBreaker@@@Z ; 29148
?PaintTextDecorations@nsTextFrame@@QAEXAAVnsIRenderingContext@@PAVnsIStyleContext@@AAUTextStyle@1@HHHPAGPAUSelectionDetails@@IIPBH@Z ; 29148
?IsRenderingOnlySelection@nsPresContext@@UAGIPAH@Z ; 29148
?FirstChild@nsComboboxControlFrame@@UBGIPAVnsIPresContext@@PAVnsIAtom@@PAPAVnsIFrame@@@Z ; 29049
?SetCollapseOffsetY@nsTableCellFrame@@QAEXPAVnsIPresContext@@H@Z ; 29033
?SetCollapseOffsetX@nsTableCellFrame@@QAEXPAVnsIPresContext@@H@Z ; 29033
?GetAdditionalChildListName@nsComboboxControlFrame@@UBGIHPAPAVnsIAtom@@@Z ; 28975
?ResetSizingInfo@nsTableColFrame@@QAEXXZ ; 28966
?SetType@nsTableColFrame@@QAEXW4nsTableColType@@@Z ; 28954
?NeedStrategyInit@nsTableFrame@@QBEHXZ ; 28680
?TableProcessChildren@nsCSSFrameConstructor@@IAEIPAVnsIPresShell@@PAVnsIPresContext@@AAVnsFrameConstructorState@@PAVnsIContent@@PAVnsIFrame@@AAUnsTableCreator@@AAUnsFrameItems@@AAPAV6@@Z ; 28631
?ConvertToLeafNode@nsDST@@AAEPAVLeafNode@1@PAPAVTwoNode@1@@Z ; 28348
?GetMinSize@nsContainerBox@@UAGIAAVnsBoxLayoutState@@AAUnsSize@@@Z ; 28294
?GetAscent@nsContainerBox@@UAGIAAVnsBoxLayoutState@@AAH@Z ; 28039
?QueryInterface@nsXULTreeSliceFrame@@UAGIABUnsID@@PAPAX@Z ; 27925
?GetFrameForPoint@nsBoxFrame@@UAGIPAVnsIPresContext@@ABUnsPoint@@W4nsFramePaintLayer@@PAPAVnsIFrame@@@Z ; 27852
?PushFrames@nsInlineFrame@@MAEXPAVnsIPresContext@@PAVnsIFrame@@1@Z ; 27128
?SetOverflowFrames@nsContainerFrame@@IAEIPAVnsIPresContext@@PAVnsIFrame@@@Z ; 27128
?ReparentFrameViewList@nsHTMLContainerFrame@@SAIPAVnsIPresContext@@PAVnsIFrame@@11@Z ; 27108
?IsIncrementalDamageConstrained@nsBlockFrame@@IBEHABVnsBlockReflowState@@@Z ; 27064
?GetPrefSize@nsContainerBox@@UAGIAAVnsBoxLayoutState@@AAUnsSize@@@Z ; 26945
?ComputeChildSizes@nsSprocketLayout@@MAEXPAVnsIBox@@AAVnsBoxLayoutState@@AAHPAVnsBoxSize@@AAPAVnsComputedBoxSize@@@Z ; 26856
?MakeBevelColor@nsCSSRendering@@KAIHEIIH@Z ; 26808
?PopStackMemory@PresShell@@UAGIXZ ; 26752
?Pop@StackArena@@QAEIXZ ; 26752
?PopStackMemory@nsBoxLayoutState@@QAEIXZ ; 26752
?PushStackMemory@nsBoxLayoutState@@QAEIXZ ; 26752
?Push@StackArena@@QAEIXZ ; 26752
?PopulateBoxSizes@nsSprocketLayout@@MAEXPAVnsIBox@@AAVnsBoxLayoutState@@AAPAVnsBoxSize@@AAPAVnsComputedBoxSize@@AAH44@Z ; 26752
?PushStackMemory@PresShell@@UAGIXZ ; 26752
?PaintFloaters@nsBlockFrame@@IAEXPAVnsIPresContext@@AAVnsIRenderingContext@@ABUnsRect@@@Z ; 26415
?SetNextInFlow@nsSplittableFrame@@UAGIPAVnsIFrame@@@Z ; 26412
?GetAscent@nsSprocketLayout@@UAGIPAVnsIBox@@AAVnsBoxLayoutState@@AAH@Z ; 26393
?GetDesiredWidth@nsTableFrame@@QBEHXZ ; 26255
?GetMaxSize@nsContainerBox@@UAGIAAVnsBoxLayoutState@@AAUnsSize@@@Z ; 26141
?GetStyleWidth@nsTableColFrame@@QBE?AVnsStyleCoord@@XZ ; 25859
?IsSelectable@nsFrame@@UBGIPAHPAE@Z ; 25820
?CalculateBlockSideMargins@nsHTMLReflowState@@QAEXHH@Z ; 25585
?GetSelect@nsListControlFrame@@SAPAVnsIDOMHTMLSelectElement@@PAVnsIContent@@@Z ; 25287
?GetRowCount@nsTableCellMap@@QBEHXZ ; 25268
?NeedsReflow@nsTableFrame@@UAEHABUnsHTMLReflowState@@@Z ; 25233
?RemoveLeftMostLeafNode@nsDST@@AAEPAVLeafNode@1@PAPAVTwoNode@1@@Z ; 25009
?GetOptions@nsListControlFrame@@SAPAVnsIDOMHTMLCollection@@PAVnsIContent@@PAVnsIDOMHTMLSelectElement@@@Z ; 24834
?GetMaxSize@nsSprocketLayout@@UAGIPAVnsIBox@@AAVnsBoxLayoutState@@AAUnsSize@@@Z ; 24492
?GetPrefSize@nsSprocketLayout@@UAGIPAVnsIBox@@AAVnsBoxLayoutState@@AAUnsSize@@@Z ; 24299
?DidResize@nsTableRowFrame@@UAEXPAVnsIPresContext@@ABUnsHTMLReflowState@@@Z ; 24220
?GetMinSize@nsSprocketLayout@@UAGIPAVnsIBox@@AAVnsBoxLayoutState@@AAUnsSize@@@Z ; 24125
?AttributeChanged@nsBoxFrame@@UAGIPAVnsIPresContext@@PAVnsIContent@@HPAVnsIAtom@@H@Z ; 23789
?QueryInterface@nsImageFrame@@UAGIABUnsID@@PAPAX@Z ; 23517
?GetRowGroupFrame@nsTableFrame@@QAEPAVnsTableRowGroupFrame@@PAVnsIFrame@@PAVnsIAtom@@@Z ; 23164
?FindLineFor@nsBlockFrame@@QAEPAVnsLineBox@@PAVnsIFrame@@PAPAV2@PAH@Z ; 23134
?Paint@nsImageFrame@@UAGIPAVnsIPresContext@@AAVnsIRenderingContext@@ABUnsRect@@W4nsFramePaintLayer@@@Z ; 23109
?SetDesiredSize@nsTableOuterFrame@@IAEXEABUnsMargin@@0AAH1@Z ; 23007
?UpdateReflowMetrics@nsTableOuterFrame@@IAEXEAAUnsHTMLReflowMetrics@@ABUnsMargin@@1111@Z ; 23007
?GetCaptionSide@nsTableOuterFrame@@IAEEXZ ; 23007
??0nsBoxLayoutState@@QAE@PAVnsIPresContext@@@Z ; 22704
?SetNeedStrategyBalance@nsTableFrame@@QAEXH@Z ; 22396
?DisplaySelection@nsFrame@@IAEFPAVnsIPresContext@@H@Z ; 22257
?ProcessBlockChildren@nsCSSFrameConstructor@@IAEIPAVnsIPresShell@@PAVnsIPresContext@@AAVnsFrameConstructorState@@PAVnsIContent@@PAVnsIFrame@@HAAUnsFrameItems@@H@Z ; 22038
?ConstructBlock@nsCSSFrameConstructor@@IAEIPAVnsIPresShell@@PAVnsIPresContext@@AAVnsFrameConstructorState@@PBUnsStyleDisplay@@PAVnsIContent@@PAVnsIFrame@@PAVnsIStyleContext@@5@Z ; 22038
?RemoveDummyLayoutRequest@PresShell@@IAEIXZ ; 21851
?GetMaxSize@nsBox@@UAGIAAVnsBoxLayoutState@@AAUnsSize@@@Z ; 21025
?NS_NewURI@@YAIPAPAVnsIURI@@PBDPAV1@PAVnsIIOService@@@Z ; 20986
?do_GetIOService@@YA?BVnsGetServiceByCID@@PAI@Z ; 20986
?GetColWidth@@YAHPAVnsTableColFrame@@H@Z ; 20880
?PaintAsciiText@nsTextFrame@@QAEXPAVnsIPresContext@@AAVnsIRenderingContext@@PAVnsIStyleContext@@AAUTextStyle@1@HH@Z ; 20845
??1BRFrame@@MAE@XZ ; 20793
??_EBRFrame@@MAEPAXI@Z ; 20793
?NS_NewBRFrame@@YAIPAVnsIPresShell@@PAPAVnsIFrame@@@Z ; 20793
?GetCursor@nsBoxFrame@@UAGIPAVnsIPresContext@@AAUnsPoint@@AAH@Z ; 20787
?TranslateEventCoords@nsBoxFrameInner@@QAEXPAVnsIPresContext@@ABUnsPoint@@AAU3@@Z ; 20787
?MoveOverflowToChildList@nsContainerFrame@@IAEHPAVnsIPresContext@@@Z ; 20774
?GetEffectiveRowSpan@nsTableFrame@@UBEHHABVnsTableCellFrame@@@Z ; 19996
?IsSafeToFlush@PresShell@@UAGIAAH@Z ; 19721
?GetOptionContent@nsListControlFrame@@IAEPAVnsIContent@@H@Z ; 19517
?PopCurrentEventInfo@PresShell@@AAEXXZ ; 19209
?PushCurrentEventInfo@PresShell@@AAEXPAVnsIFrame@@PAVnsIContent@@@Z ; 19209
?HandleEventInternal@PresShell@@AAEIPAUnsEvent@@PAVnsIView@@IPAW4nsEventStatus@@@Z ; 19162
?Init@nsTableReflowState@@QAEXAAVnsTableFrame@@W4nsReflowReason@@HH@Z ; 19160
?Reflow@nsTableRowGroupFrame@@UAGIPAVnsIPresContext@@AAUnsHTMLReflowMetrics@@ABUnsHTMLReflowState@@AAI@Z ; 18976
?AddRef@nsIsIndexFrame@@EAGKXZ ; 18923
?PseudoMatches@nsOutlinerBodyFrame@@UAGIPAVnsIAtom@@PAUnsCSSSelector@@PAH@Z ; 18820
?LayoutChildAt@nsContainerBox@@SAIAAVnsBoxLayoutState@@PAVnsIBox@@ABUnsRect@@@Z ; 18798
?Reflow@nsTableOuterFrame@@UAGIPAVnsIPresContext@@AAUnsHTMLReflowMetrics@@ABUnsHTMLReflowState@@AAI@Z ; 18794
?GetPrefSize@nsImageBoxFrame@@UAGIAAVnsBoxLayoutState@@AAUnsSize@@@Z ; 18791
?ScanNormalUnicodeText_F@nsTextTransformer@@IAEHHPAH0@Z ; 18702
?GetMarginPadding@@YAXPAVnsIPresContext@@ABUnsHTMLReflowState@@PAVnsIFrame@@AAUnsMargin@@33@Z ; 18664
?PaintImage@nsImageBoxFrame@@MAGIPAVnsIPresContext@@AAVnsIRenderingContext@@ABUnsRect@@W4nsFramePaintLayer@@@Z ; 18366
?Paint@nsImageBoxFrame@@UAGIPAVnsIPresContext@@AAVnsIRenderingContext@@ABUnsRect@@W4nsFramePaintLayer@@@Z ; 18366
?GetContentForEvent@nsImageFrame@@UAGIPAVnsIPresContext@@PAUnsEvent@@PAPAVnsIContent@@@Z ; 18302
?AddBordersAndPadding@nsLeafFrame@@IAEXPAVnsIPresContext@@ABUnsHTMLReflowState@@AAUnsHTMLReflowMetrics@@AAUnsMargin@@@Z ; 18025
??_GnsVoidArray@@UAEPAXI@Z ; 17942
?GetContentForEvent@nsFrame@@UAGIPAVnsIPresContext@@PAUnsEvent@@PAPAVnsIContent@@@Z ; 17911
?AppendChange@nsStyleChangeList@@QAEIPAVnsIFrame@@PAVnsIContent@@H@Z ; 17638
?Reflow@nsImageFrame@@UAGIPAVnsIPresContext@@AAUnsHTMLReflowMetrics@@ABUnsHTMLReflowState@@AAI@Z ; 17498
?GetDesiredSize@nsImageFrame@@MAEXPAVnsIPresContext@@ABUnsHTMLReflowState@@AAUnsHTMLReflowMetrics@@@Z ; 17498
?OuterReflowChild@nsTableOuterFrame@@MAGIPAVnsIPresContext@@PAVnsIFrame@@ABUnsHTMLReflowState@@AAUnsHTMLReflowMetrics@@PAHAAUnsSize@@AAUnsMargin@@66W4nsReflowReason@@AAI@Z ; 17232
?GetChildAvailWidth@nsTableOuterFrame@@IAEHPAVnsIPresContext@@PAVnsIFrame@@ABUnsHTMLReflowState@@HAAUnsMargin@@3@Z ; 17232
?Reflow@nsTableFrame@@UAGIPAVnsIPresContext@@AAUnsHTMLReflowMetrics@@ABUnsHTMLReflowState@@AAI@Z ; 17232
?SetColumnDimensions@nsTableFrame@@IAEXPAVnsIPresContext@@HABUnsMargin@@@Z ; 17232
?GetContainingBlockSize@@YA?AUnsSize@@ABUnsHTMLReflowState@@@Z ; 17232
?ComputePercentBasisForRows@nsTableFrame@@QAEXPAVnsIPresContext@@ABUnsHTMLReflowState@@@Z ; 17232
?CalcDesiredHeight@nsTableFrame@@IAEHPAVnsIPresContext@@ABUnsHTMLReflowState@@@Z ; 17232
?GetInnerOrigin@nsTableOuterFrame@@MAGIPAVnsIPresContext@@IABUnsSize@@1ABUnsMargin@@1AAU4@AAUnsPoint@@@Z ; 17232
?SetLayoutManager@nsContainerBox@@UAGIPAVnsIBoxLayout@@@Z ; 17096
?CellChangedWidth@nsTableFrame@@QAEHABVnsTableCellFrame@@HHH@Z ; 17077
?SetNextInFlow@nsTextFrame@@UAGIPAVnsIFrame@@@Z ; 16898
?GetFrameType@nsPlaceholderFrame@@UBGIPAPAVnsIAtom@@@Z ; 16408
?Init@nsTableRowFrame@@UAGIPAVnsIPresContext@@PAVnsIContent@@PAVnsIFrame@@PAVnsIStyleContext@@2@Z ; 16361
?ConstructTableRowFrame@nsCSSFrameConstructor@@IAEIPAVnsIPresShell@@PAVnsIPresContext@@AAVnsFrameConstructorState@@PAVnsIContent@@PAVnsIFrame@@PAVnsIStyleContext@@AAUnsTableCreator@@HAAUnsFrameItems@@AAPAV6@AAH@Z ; 16361
??1nsTableRowFrame@@UAE@XZ ; 16361
??0nsTableRowFrame@@IAE@XZ ; 16361
?CreateTableRowFrame@nsTableCreator@@UAEIPAPAVnsIFrame@@@Z ; 16361
?NS_NewTableRowFrame@@YAIPAVnsIPresShell@@PAPAVnsIFrame@@@Z ; 16361
??_EnsTableRowFrame@@UAEPAXI@Z ; 16361
?GetPseudoStyleContext@nsOutlinerBodyFrame@@IAEIPAVnsIAtom@@PAPAVnsIStyleContext@@@Z ; 16165
?GetStyleContext@nsOutlinerStyleCache@@QAEIPAVnsICSSPseudoComparator@@PAVnsIPresContext@@PAVnsIContent@@PAVnsIStyleContext@@PAVnsIAtom@@PAVnsISupportsArray@@PAPAV5@@Z ; 16165
?Paint@nsContainerFrame@@UAGIPAVnsIPresContext@@AAVnsIRenderingContext@@ABUnsRect@@W4nsFramePaintLayer@@@Z ; 16098
?QueryInterface@nsGfxButtonControlFrame@@UAGIABUnsID@@PAPAX@Z ; 16006
?Release@nsBoxObject@@UAGKXZ ; 15985
?ChangeAt@nsStyleChangeList@@QBEIHAAPAVnsIFrame@@AAPAVnsIContent@@AAH@Z ; 15907
?GetLength@nsFrameList@@QBEHXZ ; 15906
?RePositionViews@nsTableFrame@@SAXPAVnsIPresContext@@PAVnsIFrame@@@Z ; 15744
?ContentStatesChanged@nsGfxScrollFrameInner@@UAGIPAVnsIDocument@@PAVnsIContent@@1@Z ; 15721
?Paint@nsTableOuterFrame@@UAGIPAVnsIPresContext@@AAVnsIRenderingContext@@ABUnsRect@@W4nsFramePaintLayer@@@Z ; 15666
?Paint@nsTableFrame@@UAGIPAVnsIPresContext@@AAVnsIRenderingContext@@ABUnsRect@@W4nsFramePaintLayer@@@Z ; 15663
?Paint@nsTableRowGroupFrame@@UAGIPAVnsIPresContext@@AAVnsIRenderingContext@@ABUnsRect@@W4nsFramePaintLayer@@@Z ; 15651
?PaintChildren@nsTableRowGroupFrame@@UAEXPAVnsIPresContext@@AAVnsIRenderingContext@@ABUnsRect@@W4nsFramePaintLayer@@@Z ; 15651
?SanityCheck@nsContainerBox@@UAEXAAVnsFrameList@@@Z ; 15506
?GetPresShell@nsBoxLayoutState@@UAEIPAPAVnsIPresShell@@@Z ; 15494
?Equals@nsDFAState@@UBEHPBVnsHashKey@@@Z ; 15484
?ClearChildren@nsContainerBox@@UAEXAAVnsBoxLayoutState@@@Z ; 15303
??0nsBoxLayoutState@@QAE@PAVnsIPresShell@@@Z ; 15303
?ProcessRestyledFrames@nsCSSFrameConstructor@@UAGIAAVnsStyleChangeList@@PAVnsIPresContext@@@Z ; 15278
??0nsStyleChangeList@@QAE@XZ ; 15278
??1nsStyleChangeList@@QAE@XZ ; 15278
?HandlePostedAttributeChanges@PresShell@@IAEXXZ ; 15250
?HandlePostedDOMEvents@PresShell@@IAEXXZ ; 15250
?HandlePostedReflowCallbacks@PresShell@@IAEXXZ ; 15250
?NS_NewContinuingTextFrame@@YAIPAVnsIPresShell@@PAPAVnsIFrame@@@Z ; 15185
?Init@nsContinuingTextFrame@@UAGIPAVnsIPresContext@@PAVnsIContent@@PAVnsIFrame@@PAVnsIStyleContext@@2@Z ; 15185
??_GnsContinuingTextFrame@@UAEPAXI@Z ; 15185
?CalcMinAndPreferredWidths@nsTableFrame@@QAEXABUnsHTMLReflowState@@AAH1@Z ; 15088
?CalcBorderBoxWidth@nsTableFrame@@QAEHABUnsHTMLReflowState@@@Z ; 15088
?ReflowChildren@nsTableRowGroupFrame@@IAGIPAVnsIPresContext@@AAUnsHTMLReflowMetrics@@AAUnsRowGroupReflowState@@AAIPAVnsTableRowFrame@@H@Z ; 15059
?MarkDirty@nsBox@@UAGIAAVnsBoxLayoutState@@@Z ; 14960
?ReflowChildren@nsTableFrame@@IAGIPAVnsIPresContext@@AAUnsTableReflowState@@HHAAIPAH@Z ; 14947
?PlaceChild@nsTableFrame@@IAEXPAVnsIPresContext@@AAUnsTableReflowState@@PAVnsIFrame@@AAUnsHTMLReflowMetrics@@@Z ; 14892
?PullUpAllRowFrames@nsTableRowGroupFrame@@IAGIPAVnsIPresContext@@@Z ; 14892
?ProcessReflowCommands@PresShell@@IAEIH@Z ; 14883
?GetWidth@nsOutlinerColumn@@QAEHXZ ; 14857
?AttributeAffectsStyle@FrameManager@@UAGIPAVnsIAtom@@PAVnsIContent@@AAH@Z ; 14839
?Reflow@nsTableColGroupFrame@@UAGIPAVnsIPresContext@@AAUnsHTMLReflowMetrics@@ABUnsHTMLReflowState@@AAI@Z ; 14817
??1nsTableColFrame@@MAE@XZ ; 14477
??0nsTableColFrame@@IAE@XZ ; 14477
?GetType@nsTableColFrame@@QBE?AW4nsTableColType@@XZ ; 14477
?Init@nsTableColFrame@@UAGIPAVnsIPresContext@@PAVnsIContent@@PAVnsIFrame@@PAVnsIStyleContext@@2@Z ; 14477
??_GnsTableColFrame@@MAEPAXI@Z ; 14477
?NS_NewTableColFrame@@YAIPAVnsIPresShell@@PAPAVnsIFrame@@@Z ; 14477
?InsertCol@nsTableFrame@@QAEXAAVnsIPresContext@@AAVnsTableColFrame@@H@Z ; 14477
?OnStopFrame@nsImageListener@@UAGIPAVimgIRequest@@PAVnsISupports@@PAVgfxIImageFrame@@@Z ; 14376
?GetMinWidth@nsTableFrame@@QBEHXZ ; 14091
?GetParentWithView@nsFrame@@UBGIPAVnsIPresContext@@PAPAVnsIFrame@@@Z ; 13963
?GetRowCount@nsTableRowGroupFrame@@QAEHXZ ; 13772
??1nsLeafFrame@@MAE@XZ ; 13711
?GetVerticalInsidePadding@nsHTMLButtonControlFrame@@UBEHPAVnsIPresContext@@MH@Z ; 13662
?GetCachedBoolPref@nsPresContext@@UAGIIAAH@Z ; 13591
?CalculateRowHeights@nsTableRowGroupFrame@@IAEXPAVnsIPresContext@@AAUnsHTMLReflowMetrics@@ABUnsHTMLReflowState@@@Z ; 13577
?IncrementalReflow@nsAbsoluteContainingBlock@@QAEIPAVnsIFrame@@PAVnsIPresContext@@ABUnsHTMLReflowState@@HHAAHAAUnsRect@@@Z ; 13399
?GetScrolledSize@nsGfxScrollFrameInner@@UBGIPAVnsIPresContext@@PAH1@Z ; 13395
?GetRowCount@nsTableFrame@@UBEHXZ ; 13317
??GnsMargin@@QBE?AU0@ABU0@@Z ; 13166
?CalcTextSize@nsTextBoxFrame@@MAEXAAVnsBoxLayoutState@@@Z ; 12993
?AddRef@nsAutoRepeatBoxFrame@@UAGKXZ ; 12919
?QueryInterface@nsScrollbarFrame@@UAGIABUnsID@@PAPAX@Z ; 12908
?PropogateReflowDamage@nsBlockFrame@@IAEXAAVnsBlockReflowState@@PAVnsLineBox@@ABUnsRect@@H@Z ; 12889
?FlushPendingNotifications@PresShell@@UAGIXZ ; 12869
?OnDataAvailable@nsImageBoxListener@@UAGIPAVimgIRequest@@PAVnsISupports@@PAVgfxIImageFrame@@PBUnsRect@@@Z ; 12789
?QueryInterface@nsTableRowGroupFrame@@UAGIABUnsID@@PAPAX@Z ; 12749
?GetFrameForPoint@nsContainerFrame@@UAGIPAVnsIPresContext@@ABUnsPoint@@W4nsFramePaintLayer@@PAPAVnsIFrame@@@Z ; 12463
?ComputeStyleChangeFor@FrameManager@@UAGIPAVnsIPresContext@@PAVnsIFrame@@HPAVnsIAtom@@AAVnsStyleChangeList@@HAAH@Z ; 12380
?QueryInterface@nsTableFrame@@UAGIABUnsID@@PAPAX@Z ; 12378
?QueryInterface@nsGfxTextControlFrame2@@UAGIABUnsID@@PAPAX@Z ; 12368
?OnStopContainer@nsImageListener@@UAGIPAVimgIRequest@@PAVnsISupports@@PAVimgIContainer@@@Z ; 12338
?Init@nsTableColGroupFrame@@UAGIPAVnsIPresContext@@PAVnsIContent@@PAVnsIFrame@@PAVnsIStyleContext@@2@Z ; 12255
?QueryInterface@nsScrollBoxFrame@@UAGIABUnsID@@PAPAX@Z ; 12214
?OnStartFrame@nsImageListener@@UAGIPAVimgIRequest@@PAVnsISupports@@PAVgfxIImageFrame@@@Z ; 12203
??0nsHTMLImageLoader@@QAE@XZ ; 12186
??1nsHTMLImageLoader@@QAE@XZ ; 12186
?DoReflowInlineFramesMalloc@nsBlockFrame@@IAEIAAVnsBlockReflowState@@PAVnsLineBox@@PAHPAEHH@Z ; 12175
?GetFrameType@nsRootBoxFrame@@UBGIPAPAVnsIAtom@@@Z ; 12156
?ContentInserted@nsGfxScrollFrameInner@@UAGIPAVnsIDocument@@PAVnsIContent@@1H@Z ; 12105
?MarkLineDirty@nsBlockFrame@@IAEIPAVnsLineBox@@0@Z ; 12068
?GetMaxElementSize@nsBoxLayoutState@@UAEXPAPAUnsSize@@@Z ; 11948
?ClearFrameRefs@PresShell@@UAGIPAVnsIFrame@@@Z ; 11947
?ClearFrameRefs@nsCaret@@UAGIPAVnsIFrame@@@Z ; 11947
?QueryInterface@nsImageListener@@UAGIABUnsID@@PAPAX@Z ; 11929
?AddColsAtEnd@nsTableCellMap@@QAEXI@Z ; 11741
?LayoutBox@nsGfxScrollFrameInner@@QAEIAAVnsBoxLayoutState@@PAVnsIBox@@ABUnsRect@@@Z ; 11626
?GetType@nsHTMLButtonControlFrame@@UBGIPAH@Z ; 11607
?HandleEvent@PresShell@@UAGIPAVnsIView@@PAUnsGUIEvent@@PAW4nsEventStatus@@HAAH@Z ; 11406
??0nsBox@@QAE@PAVnsIPresShell@@@Z ; 11376
?GetAdditionalChildListName@nsMenuFrame@@UBGIHPAPAVnsIAtom@@@Z ; 11330
?NeedStrategyBalance@nsTableFrame@@QBEHXZ ; 11293
?Remove@nsDST@@QAEIPAX@Z ; 11291
?GetFrameForPoint@nsTableOuterFrame@@UAGIPAVnsIPresContext@@ABUnsPoint@@W4nsFramePaintLayer@@PAPAVnsIFrame@@@Z ; 11248
?ComputeNonPctColspanWidths@BasicTableLayoutStrategy@@IAEHHPAVnsTableCellFrame@@HHHAAHM@Z ; 11213
?Paint@nsTableColFrame@@UAGIPAVnsIPresContext@@AAVnsIRenderingContext@@ABUnsRect@@W4nsFramePaintLayer@@@Z ; 11141
?EraseCaret@nsCaret@@UAGIXZ ; 11117
?GetBandAvailableSpace@nsSpaceManager@@IBEIPBUBandRect@1@HABUnsSize@@AAUnsBandData@@@Z ; 11103
?GetNextBand@nsSpaceManager@@IBEPAUBandRect@1@PBU21@@Z ; 10735
?Release@nsTextInputSelectionImpl@@UAGKXZ ; 10716
?AddRef@nsTextInputSelectionImpl@@UAGKXZ ; 10716
?PrepareChildIncrementalReflow@nsBlockFrame@@IAEIAAVnsBlockReflowState@@@Z ; 10664
?FirstChild@nsMenuFrame@@UBGIPAVnsIPresContext@@PAVnsIAtom@@PAPAVnsIFrame@@@Z ; 10627
?HandleEventWithTarget@PresShell@@UAGIPAUnsEvent@@PAVnsIFrame@@PAVnsIContent@@IPAW4nsEventStatus@@@Z ; 10606
?AddRef@nsImageFrame@@MAGKXZ ; 10593
?EndUpdate@PresShell@@UAGIPAVnsIDocument@@@Z ; 10583
?BeginUpdate@PresShell@@UAGIPAVnsIDocument@@@Z ; 10583
?OnStopDecode@nsImageFrame@@UAGIPAVimgIRequest@@PAVnsIPresContext@@IPBG@Z ; 10575
?GetURI@nsImageFrame@@IAEXABVnsAString@@PAPAVnsIURI@@@Z ; 10571
??0nsImageFrame@@QAE@XZ ; 10571
?Init@nsImageFrame@@UAGIPAVnsIPresContext@@PAVnsIContent@@PAVnsIFrame@@PAVnsIStyleContext@@2@Z ; 10571
??_GnsImageListener@@UAEPAXI@Z ; 10571
?Destroy@nsImageFrame@@UAGIPAVnsIPresContext@@@Z ; 10571
??0nsImageListener@@QAE@PAVnsImageFrame@@@Z ; 10571
??1nsImageListener@@UAE@XZ ; 10571
?GetBaseURI@nsImageFrame@@IAEXPAPAVnsIURI@@@Z ; 10571
?GetLoadGroup@nsImageFrame@@IAEXPAVnsIPresContext@@PAPAVnsILoadGroup@@@Z ; 10571
??1nsImageFrame@@MAE@XZ ; 10571
?SetTarget@nsHTMLReflowCommand@@UAGIPAVnsIFrame@@@Z ; 10491
?Paint@PresShell@@UAGIPAVnsIView@@AAVnsIRenderingContext@@ABUnsRect@@@Z ; 10421
?GetImageAnimationMode@nsPresContext@@UAGIPAW4nsImageAnimation@@@Z ; 10420
??_EnsImageFrame@@MAEPAXI@Z ; 10385
?NS_NewImageFrame@@YAIPAVnsIPresShell@@PAPAVnsIFrame@@@Z ; 10385
?GetFirstFloater@nsLineBox@@QAEPAVnsFloaterCache@@XZ ; 10384
?QueryInterface@nsGfxScrollFrame@@UAGIABUnsID@@PAPAX@Z ; 10357
?GetImageSource@nsImageBoxFrame@@IAEXAAVnsString@@@Z ; 10353
?ClearAllUndisplayedContentIn@FrameManager@@UAGIPAVnsIContent@@@Z ; 10194
?RemoveNodesFor@UndisplayedMap@@QAEIPAVnsIContent@@@Z ; 10194
?GetParentMonument@nsMonumentLayout@@UAGIPAVnsIBox@@AAV?$nsCOMPtr@VnsIBox@@@@PAPAVnsIMonument@@@Z ; 10141
?OnStartDecode@nsImageListener@@UAGIPAVimgIRequest@@PAVnsISupports@@@Z ; 10126
?OnStartContainer@nsImageListener@@UAGIPAVimgIRequest@@PAVnsISupports@@PAVimgIContainer@@@Z ; 10126
?OnStartContainer@nsImageFrame@@UAGIPAVimgIRequest@@PAVnsIPresContext@@PAVimgIContainer@@@Z ; 10126
?QueryInterface@nsLeafBoxFrame@@UAGIABUnsID@@PAPAX@Z ; 10016
?QueryInterface@nsHTMLButtonControlFrame@@UAGIABUnsID@@PAPAX@Z ; 9798
?PaintChildren@nsStackFrame@@UAEXPAVnsIPresContext@@AAVnsIRenderingContext@@ABUnsRect@@W4nsFramePaintLayer@@@Z ; 9759
?QueryInterface@nsTextInputSelectionImpl@@UAGIABUnsID@@PAPAX@Z ; 9723
?PrepareUnicodeText@nsTextFrame@@QAEHAAVnsTextTransformer@@PAUnsAutoIndexBuffer@@PAVnsAutoTextBuffer@@PAH@Z ; 9723
?Tail@nsFloaterCacheList@@QBEPAVnsFloaterCache@@XZ ; 9570
?GetIntegerAttribute@nsGfxScrollFrameInner@@QAEHPAVnsIBox@@PAVnsIAtom@@H@Z ; 9531
?SetAttribute@nsGfxScrollFrameInner@@QAEHPAVnsIBox@@PAVnsIAtom@@HH@Z ; 9531
?Paint@nsTextBoxFrame@@UAGIPAVnsIPresContext@@AAVnsIRenderingContext@@ABUnsRect@@W4nsFramePaintLayer@@@Z ; 9518
?IsSplittable@nsTextFrame@@UBGIAAI@Z ; 9442
?GetBaseURI@nsImageBoxFrame@@IAEXPAPAVnsIURI@@@Z ; 9396
?SetDebug@nsBoxFrame@@UAGIAAVnsBoxLayoutState@@H@Z ; 9331
?GetSkipSides@nsGfxScrollFrame@@MBEHXZ ; 9285
?GetMinSize@nsImageBoxFrame@@UAGIAAVnsBoxLayoutState@@AAUnsSize@@@Z ; 9256
?GetFrameType@nsGfxTextControlFrame2@@UBGIPAPAVnsIAtom@@@Z ; 9082
?RenumberListsFor@nsBlockFrame@@IAEHPAVnsIPresContext@@PAVnsIFrame@@PAHH@Z ; 9045
?BCW_Wrapup@@YAHPAVnsIPresContext@@ABUnsHTMLReflowState@@PAVBasicTableLayoutStrategy@@PAVnsTableFrame@@PAH@Z ; 9023
?BalanceColumnWidths@BasicTableLayoutStrategy@@UAEHPAVnsIPresContext@@ABUnsHTMLReflowState@@@Z ; 9023
?ResetPctValues@@YAXPAVnsTableFrame@@H@Z ; 9023
?BalanceColumnWidths@nsTableFrame@@MAEXPAVnsIPresContext@@ABUnsHTMLReflowState@@@Z ; 9023
?CalcDesiredWidth@nsTableFrame@@MAEHABUnsHTMLReflowState@@@Z ; 9023
?UpdateImage@nsImageBoxFrame@@UAEXPAVnsIPresContext@@AAH@Z ; 8995
?GetImage@nsOutlinerBodyFrame@@IAEIHPBGPAVnsIStyleContext@@PAPAVimgIContainer@@@Z ; 8917
?GetType@nsGfxTextControlFrame2@@UBGIPAH@Z ; 8815
?MarkChildrenStyleChange@nsBox@@UAGIXZ ; 8750
??3nsBoxToBlockAdaptor@@SAXPAXI@Z ; 8655
?RecycleFreedMemory@nsBoxLayoutState@@SAXPAVnsIPresShell@@PAX@Z ; 8655
??2nsBoxFrameInner@@SAPAXIPAVnsIPresShell@@@Z ; 8655
?CalculateTotals@BasicTableLayoutStrategy@@IAEXPAH00AAH@Z ; 8654
?GetMetricsFor@nsPresContext@@UAGIABUnsFont@@PAPAVnsIFontMetrics@@@Z ; 8652
?GetParentWithTag@nsScrollbarButtonFrame@@SAIPAVnsIAtom@@PAVnsIFrame@@AAPAV3@@Z ; 8435
?GetScrollbar@nsSliderFrame@@AAEPAVnsIBox@@XZ ; 8430
?GetInnerArea@nsImageFrame@@IBEXPAVnsIPresContext@@AAUnsRect@@@Z ; 8382
?GetContainer@nsPresContext@@UAGIPAPAVnsISupports@@@Z ; 8324
?CalcSideFor@@YAHPBVnsIFrame@@ABVnsStyleCoord@@EEPBHH@Z ; 8292
?HandleEvent@nsFrame@@UAGIPAVnsIPresContext@@PAUnsGUIEvent@@PAW4nsEventStatus@@@Z ; 8248
?GetPadding@nsTableFrame@@SA?AUnsMargin@@ABUnsSize@@PBVnsTableCellFrame@@@Z ; 8239
?PaintUnicodeText@nsTextFrame@@QAEXPAVnsIPresContext@@AAVnsIRenderingContext@@PAVnsIStyleContext@@AAUTextStyle@1@HH@Z ; 8236
?GetFontScaler@nsPresContext@@UAGIPAH@Z ; 8082
?GetMaxElementSize@nsTableOuterFrame@@IAE?AUnsSize@@ABUnsMargin@@00@Z ; 7933
??1UndisplayedNode@@QAE@XZ ; 7930
?AddNodeFor@UndisplayedMap@@QAEIPAVnsIContent@@0PAVnsIStyleContext@@@Z ; 7930
?SetUndisplayedContent@FrameManager@@UAGIPAVnsIContent@@PAVnsIStyleContext@@@Z ; 7930
?AppendNodeFor@UndisplayedMap@@IAEIPAVUndisplayedNode@@PAVnsIContent@@@Z ; 7930
?StartLoadImage@nsPresContext@@UAGIABVnsString@@PBIPBUnsSize@@PAVnsIFrame@@P6AIPAVnsIPresContext@@PAVnsIFrameImageLoader@@3PAXI@Z66PAPAV6@@Z ; 7925
?AppendFrames@nsFrameList@@QAEXPAVnsIFrame@@0@Z ; 7923
?GetImage@nsFrameImageLoader@@UAGIPAPAVnsIImage@@@Z ; 7914
?SetContentSelected@nsListControlFrame@@IAEXHH@Z ; 7881
?CreateBoxList@nsContainerBox@@UAEHAAVnsBoxLayoutState@@PAVnsIFrame@@AAPAVnsIBox@@2@Z ; 7878
?QueryInterface@nsBoxObject@@UAGIABUnsID@@PAPAX@Z ; 7876
?HasStyleChange@nsBoxFrame@@MAEHXZ ; 7810
?SetStyleChangeFlag@nsBox@@MAEXH@Z ; 7803
?PaintBackgroundLayer@nsOutlinerBodyFrame@@UAGIPAVnsIStyleContext@@PAVnsIPresContext@@AAVnsIRenderingContext@@ABUnsRect@@3@Z ; 7732
?GetFrameFor@nsCSSFrameConstructor@@IAEPAVnsIFrame@@PAVnsIPresShell@@PAVnsIPresContext@@PAVnsIContent@@@Z ; 7713
?GetInitialHAlignment@nsBoxFrame@@MAEHAAW4Halignment@nsIBox@@@Z ; 7693
?GetInitialEqualSize@nsBoxFrame@@MAEHAAH@Z ; 7693
?GetInitialVAlignment@nsBoxFrame@@MAEHAAW4Valignment@nsIBox@@@Z ; 7693
?GetInitialDebug@nsBoxFrameInner@@QAEHAAH@Z ; 7693
?GetInitialAutoStretch@nsBoxFrame@@MAEHAAH@Z ; 7693
?GetInitialOrientation@nsBoxFrame@@MAEXAAH@Z ; 7693
?Recycle@nsBoxFrameInner@@QAEXPAVnsIPresShell@@@Z ; 7692
??1nsContainerBox@@UAE@XZ ; 7692
??0nsBoxFrame@@QAE@PAVnsIPresShell@@HPAVnsIBoxLayout@@@Z ; 7692
??1nsBoxFrame@@UAE@XZ ; 7692
?CacheAttributes@nsBoxFrameInner@@QAEXXZ ; 7692
?Destroy@nsBoxFrame@@MAGIPAVnsIPresContext@@@Z ; 7692
?Init@nsBoxFrame@@UAGIPAVnsIPresContext@@PAVnsIContent@@PAVnsIFrame@@PAVnsIStyleContext@@2@Z ; 7692
??0nsContainerBox@@QAE@PAVnsIPresShell@@@Z ; 7692
?AddRef@DummyLayoutRequest@@UAGKXZ ; 7678
?GetScrollableView@nsGfxScrollFrameInner@@QAEPAVnsIScrollableView@@PAVnsIPresContext@@@Z ; 7657
?DidSetStyleContext@nsImageBoxFrame@@UAGIPAVnsIPresContext@@@Z ; 7629
?AddFrame@nsFrameImageLoader@@UAGIPAVnsIFrame@@P6AIPAVnsIPresContext@@PAVnsIFrameImageLoader@@0PAXI@Z33@Z ; 7620
?SetInitialChildList@nsBoxFrame@@UAGIPAVnsIPresContext@@PAVnsIAtom@@PAVnsIFrame@@@Z ; 7611
?InitChildren@nsContainerBox@@UAEXAAVnsBoxLayoutState@@PAVnsIFrame@@@Z ; 7611
?NotifyAncestorFramesOfReflowCommand@@YAXPAVnsIPresShell@@PAVnsIReflowCommand@@H@Z ; 7573
?GetSize@nsFrameImageLoader@@UAGIAAUnsSize@@@Z ; 7571
?NS_NewSprocketLayout@@YAIPAVnsIPresShell@@AAV?$nsCOMPtr@VnsIBoxLayout@@@@@Z ; 7496
?GetIntValue@nsHTMLValue@@QBEHXZ ; 7448
?SetHasMultibyte@nsTextTransformer@@QAEXH@Z ; 7266
?GetSelection@nsTextInputSelectionImpl@@UAGIFPAPAVnsISelection@@@Z ; 7257
?GetBoxForFrame@nsBoxLayoutState@@AAEPAVnsIBox@@PAVnsIFrame@@AAH@Z ; 7194
?CombineRects@@YAXABUnsRect@@AAU1@@Z ; 7182
?DigDeep@nsLayoutIterator@@UAEHPAPAVnsIBoxLayout@@H@Z ; 7157
?IsCollapsed@nsBoxToBlockAdaptor@@UAGIAAVnsBoxLayoutState@@AAH@Z ; 7129
?Release@nsCaret@@UAGKXZ ; 7109
?AttributeChanged@nsBlockFrame@@UAGIPAVnsIPresContext@@PAVnsIContent@@HPAVnsIAtom@@H@Z ; 7104
?DidResizeReflow@nsTableFrame@@IBEHXZ ; 7072
?PushFrame@nsLineLayout@@IAEXPAVnsIFrame@@@Z ; 7030
?QueryInterface@nsFormFrame@@UAGIABUnsID@@PAPAX@Z ; 7004
?GetNextLayout@nsLayoutIterator@@UAEHPAPAVnsIBoxLayout@@H@Z ; 6991
?Equals@nsISupportsKey@@UBEHPBVnsHashKey@@@Z ; 6768
?DisplayDeselected@nsListControlFrame@@IAEXPAVnsIContent@@@Z ; 6767
?GetFrameForPoint@nsMenuFrame@@UAGIPAVnsIPresContext@@ABUnsPoint@@W4nsFramePaintLayer@@PAPAVnsIFrame@@@Z ; 6758
?IsContentSelectedByIndex@nsListControlFrame@@IAEHH@Z ; 6758
??0nsQueryReferent@@QAE@PAVnsIWeakReference@@PAI@Z ; 6729
?PrefillPropertyArray@nsOutlinerBodyFrame@@IAEXHPAVnsOutlinerColumn@@@Z ; 6710
?SetNeedStrategyInit@nsTableFrame@@QAEXH@Z ; 6658
?HandleReflow@nsBoxLayoutState@@UAEXPAVnsIBox@@@Z ; 6609
??0nsBoxLayoutState@@QAE@PAVnsIPresContext@@ABUnsHTMLReflowState@@AAUnsHTMLReflowMetrics@@@Z ; 6609
?DidReflow@nsLeafBoxFrame@@UAGIPAVnsIPresContext@@H@Z ; 6609
?Reflow@nsBoxFrame@@UAGIPAVnsIPresContext@@AAUnsHTMLReflowMetrics@@ABUnsHTMLReflowState@@AAI@Z ; 6600
?NS_NewHTMLReflowCommand@@YAIPAPAVnsIReflowCommand@@PAVnsIFrame@@W4ReflowType@1@1PAVnsIAtom@@@Z ; 6597
??_GnsHTMLReflowCommand@@UAEPAXI@Z ; 6597
??1nsHTMLReflowCommand@@UAE@XZ ; 6597
??0nsHTMLReflowCommand@@QAE@PAVnsIFrame@@W4ReflowType@nsIReflowCommand@@0PAVnsIAtom@@@Z ; 6597
?AppendReflowCommandInternal@PresShell@@UAGIPAVnsIReflowCommand@@AAVnsVoidArray@@@Z ; 6597
?QueryInterface@nsHTMLReflowCommand@@UAGIABUnsID@@PAPAX@Z ; 6597
?Grow@nsCellMap@@IAEHAAVnsTableCellMap@@HH@Z ; 6438
?GetAscent@nsImageBoxFrame@@UAGIAAVnsBoxLayoutState@@AAH@Z ; 6420
?ReflowCommandAdded@PresShell@@IAEIPAVnsIReflowCommand@@@Z ; 6360
?ReflowCommandRemoved@PresShell@@IAEIPAVnsIReflowCommand@@@Z ; 6360
?SetDefaultBackgroundColor@nsFrame@@IAEXPAVnsIPresContext@@@Z ; 6341
?CreateAnonymousColFrames@nsTableFrame@@QAEXAAVnsIPresContext@@AAVnsTableColGroupFrame@@HW4nsTableColType@@HPAVnsIFrame@@PAPAV5@@Z ; 6316
?CreateAnonymousColFrames@nsTableFrame@@QAEXAAVnsIPresContext@@HW4nsTableColType@@HPAVnsIFrame@@@Z ; 6316
?AddColsToTable@nsTableColGroupFrame@@UAGIAAVnsIPresContext@@HHPAVnsIFrame@@1@Z ; 6316
?GetStartColumnIndex@nsTableColGroupFrame@@UAEHXZ ; 6316
?CellsSpanInOrOut@nsCellMap@@IAEHAAVnsTableCellMap@@HHHH@Z ; 6315
?InsertRows@nsTableFrame@@QAEHAAVnsIPresContext@@AAVnsTableRowGroupFrame@@AAVnsVoidArray@@HH@Z ; 6314
?InsertRows@nsTableCellMap@@QAEXPAVnsIPresContext@@AAVnsTableRowGroupFrame@@AAVnsVoidArray@@HH@Z ; 6314
?InsertRows@nsCellMap@@QAEXPAVnsIPresContext@@AAVnsTableCellMap@@AAVnsVoidArray@@HH@Z ; 6314
?ComputeNonPctColspanWidths@BasicTableLayoutStrategy@@IAEXABUnsHTMLReflowState@@HMPAH@Z ; 6308
?GetFrameType@nsBulletFrame@@UBGIPAPAVnsIAtom@@@Z ; 6272
?ExpandWithRows@nsCellMap@@IAEXPAVnsIPresContext@@AAVnsTableCellMap@@AAVnsVoidArray@@H@Z ; 6272
?AppendFrame@nsFrameList@@QAEXPAVnsIFrame@@0@Z ; 6194
?Release@nsOutlinerSelection@@UAGKXZ ; 6177
?RemoveFloatersFromSpaceManager@nsLineBox@@QAEXPAVnsISpaceManager@@@Z ; 6165
?Append@nsFloaterCacheFreeList@@QAEXAAVnsFloaterCacheList@@@Z ; 6164
?CollectRows@nsTableFrame@@IAEHPAVnsIPresContext@@PAVnsIFrame@@AAVnsVoidArray@@@Z ; 6160
?GetFloaterContainingBlock@nsCSSFrameConstructor@@IAEPAVnsIFrame@@PAVnsIPresContext@@PAV2@@Z ; 6147
??1nsTableFrame@@MAE@XZ ; 6145
?ConstructTableFrame@nsCSSFrameConstructor@@IAEIPAVnsIPresShell@@PAVnsIPresContext@@AAVnsFrameConstructorState@@PAVnsIContent@@PAVnsIFrame@@PAVnsIStyleContext@@AAUnsTableCreator@@HAAUnsFrameItems@@AAPAV6@8AAH@Z ; 6145
??0BasicTableLayoutStrategy@@QAE@PAVnsTableFrame@@H@Z ; 6145
?AppendRowGroups@nsTableFrame@@QAEXAAVnsIPresContext@@PAVnsIFrame@@@Z ; 6145
?CreateTableFrame@nsTableCreator@@UAEIPAPAVnsIFrame@@@Z ; 6145
??1nsTableCellMap@@QAE@XZ ; 6145
?Init@nsTableFrame@@UAGIPAVnsIPresContext@@PAVnsIContent@@PAVnsIFrame@@PAVnsIStyleContext@@2@Z ; 6145
?CreateTableOuterFrame@nsTableCreator@@UAEIPAPAVnsIFrame@@@Z ; 6145
?FixUpOuterTableFloat@@YAXPAVnsIStyleContext@@0@Z ; 6145
?SetInitialChildList@nsTableFrame@@UAGIPAVnsIPresContext@@PAVnsIAtom@@PAVnsIFrame@@@Z ; 6145
?NS_NewTableOuterFrame@@YAIPAVnsIPresShell@@PAPAVnsIFrame@@@Z ; 6145
?Destroy@nsTableOuterFrame@@UAGIPAVnsIPresContext@@@Z ; 6145
?SetInitialChildList@nsTableOuterFrame@@UAGIPAVnsIPresContext@@PAVnsIAtom@@PAVnsIFrame@@@Z ; 6145
??0nsTableFrame@@IAE@XZ ; 6145
?InsertColGroups@nsTableFrame@@QAEXAAVnsIPresContext@@HPAVnsIFrame@@1@Z ; 6145
??0nsTableCellMap@@QAE@PAVnsIPresContext@@AAVnsTableFrame@@@Z ; 6145
?Init@nsTableOuterFrame@@UAGIPAVnsIPresContext@@PAVnsIContent@@PAVnsIFrame@@PAVnsIStyleContext@@2@Z ; 6145
??_EnsTableFrame@@MAEPAXI@Z ; 6145
?InsertRowGroups@nsTableFrame@@QAEXAAVnsIPresContext@@PAVnsIFrame@@1@Z ; 6145
??1nsTableOuterFrame@@MAE@XZ ; 6145
?HasGroupRules@nsTableFrame@@QBEHXZ ; 6145
??_GnsTableOuterFrame@@MAEPAXI@Z ; 6145
?Destroy@nsTableFrame@@UAGIPAVnsIPresContext@@@Z ; 6145
?NS_NewTableFrame@@YAIPAVnsIPresShell@@PAPAVnsIFrame@@@Z ; 6145
??1BasicTableLayoutStrategy@@UAE@XZ ; 6145
??_GBasicTableLayoutStrategy@@UAEPAXI@Z ; 6145
??0nsTableOuterFrame@@IAE@XZ ; 6145
?AdjustZeroWidth@nsTableOuterFrame@@UAGIXZ ; 6145
?IsSelected@nsOutlinerSelection@@UAGIHPAH@Z ; 6134
?SetStyleChangeFlag@nsBoxFrame@@MAEXH@Z ; 6132
??_EnsTableRowGroupFrame@@UAEPAXI@Z ; 6130
?ConstructTableRowGroupFrame@nsCSSFrameConstructor@@IAEIPAVnsIPresShell@@PAVnsIPresContext@@AAVnsFrameConstructorState@@PAVnsIContent@@PAVnsIFrame@@PAVnsIStyleContext@@AAUnsTableCreator@@HAAUnsFrameItems@@AAPAV6@AAH@Z ; 6130
?InsertGroupCellMap@nsTableCellMap@@IAEXPAVnsCellMap@@AAV2@@Z ; 6130
?InsertGroupCellMap@nsTableCellMap@@QAEXAAVnsTableRowGroupFrame@@AAPAV2@@Z ; 6130
??0nsTableRowGroupFrame@@IAE@XZ ; 6130
?NS_NewTableRowGroupFrame@@YAIPAVnsIPresShell@@PAPAVnsIFrame@@@Z ; 6130
??0nsCellMap@@QAE@AAVnsTableRowGroupFrame@@@Z ; 6130
??1nsTableRowGroupFrame@@UAE@XZ ; 6130
?CreateTableRowGroupFrame@nsTableCreator@@UAEIPAPAVnsIFrame@@@Z ; 6130
??1nsCellMap@@QAE@XZ ; 6130
?SetType@nsTableColGroupFrame@@QAEXW4nsTableColGroupType@@@Z ; 6125
?SetStartColumnIndex@nsTableColGroupFrame@@UAEHH@Z ; 6125
??_EnsTableColGroupFrame@@UAEPAXI@Z ; 6125
?CreateAnonymousColGroupFrame@nsTableFrame@@QAEPAVnsTableColGroupFrame@@AAVnsIPresContext@@W4nsTableColGroupType@@@Z ; 6125
?NS_NewTableColGroupFrame@@YAIPAVnsIPresShell@@PAPAVnsIFrame@@@Z ; 6125
??0nsTableColGroupFrame@@IAE@XZ ; 6125
?GetImageSize@nsOutlinerBodyFrame@@IAE?AUnsRect@@HPBGPAVnsIStyleContext@@@Z ; 6110
?Initialize@BasicTableLayoutStrategy@@UAEHPAVnsIPresContext@@ABUnsHTMLReflowState@@@Z ; 6065
?AssignNonPctColumnWidths@BasicTableLayoutStrategy@@MAEHPAVnsIPresContext@@HABUnsHTMLReflowState@@M@Z ; 6065
?GetEffectiveCOLSAttribute@nsTableFrame@@QAEHXZ ; 6065
??1nsFrameConstructorState@@QAE@XZ ; 6026
??0nsFrameConstructorState@@QAE@PAVnsIPresContext@@PAVnsIFrame@@11PAVnsILayoutHistoryState@@@Z ; 6026
?PostReflowEvent@PresShell@@IAEXXZ ; 5929
?IsDragInProgress@PresShell@@IBEHXZ ; 5911
?MoveOverflowToChildList@nsTableFrame@@IAEHPAVnsIPresContext@@@Z ; 5899
?ReflowDirtyChild@nsBlockFrame@@UAGIPAVnsIPresShell@@PAVnsIFrame@@@Z ; 5891
?AlreadyInQueue@PresShell@@IAEHPAVnsIReflowCommand@@AAVnsVoidArray@@@Z ; 5821
?AppendReflowCommand@PresShell@@UAGIPAVnsIReflowCommand@@@Z ; 5821
?GetHeightOfRows@nsTableRowGroupFrame@@QAEHPAVnsIPresContext@@@Z ; 5785
?GetFrameType@HRuleFrame@@UBGIPAPAVnsIAtom@@@Z ; 5778
?AllocateFully@BasicTableLayoutStrategy@@IAEXAAHPAHH@Z ; 5772
?ReflowCommandNotify@nsTableFrame@@UAGIPAVnsIPresShell@@PAVnsIReflowCommand@@H@Z ; 5761
?GetCurrentLine@nsBlockFrame@@SAIPAVnsBlockReflowState@@PAPAVnsLineBox@@@Z ; 5698
?EnsureOrient@nsSliderFrame@@QAEXXZ ; 5664
??0nsTableIterator@@QAE@AAVnsFrameList@@W4nsTableIteration@@@Z ; 5626
?AdjustForCollapsingRows@nsTableFrame@@IAGIPAVnsIPresContext@@AAH@Z ; 5626
?SetResizeReflow@nsTableFrame@@IAEXH@Z ; 5626
?AdjustForCollapsingCols@nsTableFrame@@IAGIPAVnsIPresContext@@AAH@Z ; 5626
?CollapseRowGroupIfNecessary@nsTableFrame@@IAGIPAVnsIPresContext@@PAVnsIFrame@@ABHAAH3@Z ; 5611
?PaintImage@nsOutlinerBodyFrame@@UAGIHPAVnsOutlinerColumn@@ABUnsRect@@PAVnsIPresContext@@AAVnsIRenderingContext@@1W4nsFramePaintLayer@@AAH5@Z ; 5544
?PaintCell@nsOutlinerBodyFrame@@UAGIHPAVnsOutlinerColumn@@ABUnsRect@@PAVnsIPresContext@@AAVnsIRenderingContext@@1W4nsFramePaintLayer@@@Z ; 5544
?QueryInterface@nsBoxToBlockAdaptor@@UAGIABUnsID@@PAPAX@Z ; 5540
?ClearRegions@nsSpaceManager@@UAGIXZ ; 5531
?GetWidgetRenderingMode@nsPresContext@@UAGIPAW4nsWidgetRendering@@@Z ; 5519
?Reflow@ViewportFrame@@UAGIPAVnsIPresContext@@AAUnsHTMLReflowMetrics@@ABUnsHTMLReflowState@@AAI@Z ; 5509
?PaintChild@nsStackFrame@@UAEXPAVnsIPresContext@@AAVnsIRenderingContext@@ABUnsRect@@PAVnsIFrame@@W4nsFramePaintLayer@@@Z ; 5507
?RegUnRegAccessKey@nsFormControlFrame@@SAIPAVnsIPresContext@@PAVnsIFrame@@H@Z ; 5501
?GetPrefSize@nsMenuFrame@@UAGIAAVnsBoxLayoutState@@AAUnsSize@@@Z ; 5434
?Reflow@nsBoxToBlockAdaptor@@MAEIAAVnsBoxLayoutState@@PAVnsIPresContext@@AAUnsHTMLReflowMetrics@@ABUnsHTMLReflowState@@AAIHHHHH@Z ; 5411
?GetContentOf@nsScrollBoxFrame@@UAEIPAPAVnsIContent@@@Z ; 5400
?QueryInterface@nsOutlinerBodyFrame@@UAGIABUnsID@@PAPAX@Z ; 5393
?GetPropertyAsSupports@nsBoxObject@@UAGIPBGPAPAVnsISupports@@@Z ; 5391
?Add@nsBoxSize@@QAEXABUnsMargin@@H@Z ; 5388
?GetInsertionPoint@FrameManager@@UAGIPAVnsIPresShell@@PAVnsIFrame@@1PAPAV3@@Z ; 5383
?GetOutlinerBody@nsOutlinerBoxObject@@QAEPAVnsIOutlinerBoxObject@@XZ ; 5382
?GetStatePropertyAsSupports@nsPresState@@UAGIABVnsAString@@PAPAVnsISupports@@@Z ; 5381
?GetWindow@nsFrame@@UBGIPAVnsIPresContext@@PAPAVnsIWidget@@@Z ; 5376
?InvalidateCell@nsOutlinerBodyFrame@@UAGIHPBG@Z ; 5346
?InvalidateCell@nsOutlinerBoxObject@@UAGIHPBG@Z ; 5346
?GetPreferredWidth@nsTableFrame@@QBEHXZ ; 5340
?FillPolygon@nsCSSRendering@@KAXAAVnsIRenderingContext@@QBUnsPoint@@HPAUnsRect@@@Z ; 5336
?GetContentOf@nsGfxScrollFrame@@UAEIPAPAVnsIContent@@@Z ; 5334
?FrameChanged@nsImageBoxFrame@@UAGIPAVimgIContainer@@PAVnsIPresContext@@PAVgfxIImageFrame@@PAUnsRect@@@Z ; 5311
?QueryInterface@DummyLayoutRequest@@UAGIABUnsID@@PAPAX@Z ; 5308
?AddLargestSize@nsBoxLayout@@UAEXAAUnsSize@@ABU2@@Z ; 5272
?QueryInterface@nsListEventListener@@UAGIABUnsID@@PAPAX@Z ; 5247
?ContainsFrame@nsFrameList@@QBEHPBVnsIFrame@@@Z ; 5242
?Paint@nsTableColGroupFrame@@UAGIPAVnsIPresContext@@AAVnsIRenderingContext@@ABUnsRect@@W4nsFramePaintLayer@@@Z ; 5221
?CreateAndPostReflowCommand@nsFrame@@SAIPAVnsIPresShell@@PAVnsIFrame@@W4ReflowType@nsIReflowCommand@@1PAVnsIAtom@@3@Z ; 5196
?GetCaptionAdjustedParent@@YAHPAVnsIFrame@@PBV1@PAPAV1@@Z ; 5164
?GetAbsoluteContainingBlock@nsCSSFrameConstructor@@IAEPAVnsIFrame@@PAVnsIPresContext@@PAV2@@Z ; 5164
??0nsHTMLReflowState@@QAE@PAVnsIPresContext@@PAVnsIFrame@@AAVnsIReflowCommand@@PAVnsIRenderingContext@@ABUnsSize@@@Z ; 5147
?BuildPath@nsHTMLReflowCommand@@IAEXXZ ; 5147
?Dispatch@nsHTMLReflowCommand@@UAGIPAVnsIPresContext@@AAUnsHTMLReflowMetrics@@ABUnsSize@@AAVnsIRenderingContext@@@Z ; 5147
?ProcessReflowCommand@PresShell@@IAEXAAVnsVoidArray@@HAAUnsHTMLReflowMetrics@@AAUnsSize@@AAVnsIRenderingContext@@@Z ; 5147
?DoLayout@nsBoxToBlockAdaptor@@UAGIAAVnsBoxLayoutState@@@Z ; 5144
?GetPrefSize@nsTextBoxFrame@@UAGIAAVnsBoxLayoutState@@AAUnsSize@@@Z ; 5113
?GetPrefSize@nsBox@@UAGIAAVnsBoxLayoutState@@AAUnsSize@@@Z ; 5097
?UnWind@nsBoxLayoutState@@AAEXPAVnsIReflowCommand@@PAVnsIBox@@@Z ; 5075
?GetFrameInfoFor@nsSpaceManager@@IAEPAUFrameInfo@1@PAVnsIFrame@@@Z ; 5006
?AddFormControlFrame@nsFormFrame@@SAXPAVnsIPresContext@@AAVnsIFrame@@@Z ; 4989
?Layout@nsStackLayout@@UAGIPAVnsIBox@@AAVnsBoxLayoutState@@@Z ; 4981
?CreateAnonymousFrames@nsCSSFrameConstructor@@IAEIPAVnsIPresShell@@PAVnsIPresContext@@AAVnsFrameConstructorState@@PAVnsIContent@@PAVnsIDocument@@PAVnsIFrame@@AAUnsFrameItems@@@Z ; 4930
?Release@DummyLayoutRequest@@UAGKXZ ; 4895
?Release@nsLayoutDLF@@UAGKXZ ; 4783
?GetDefaultFixedFont@nsPresContext@@UAGIAAUnsFont@@@Z ; 4770
?GetDefaultFont@nsPresContext@@UAGIAAUnsFont@@@Z ; 4770
?GetDefaultColor@nsPresContext@@UAGIPAI@Z ; 4770
?GetDefaultDirection@nsPresContext@@UAGIPAE@Z ; 4770
?GetStateType@nsGfxButtonControlFrame@@MAGIPAVnsIPresContext@@PAW4StateType@nsIStatefulFrame@@@Z ; 4756
?DoLayout@nsScrollBoxFrame@@UAGIAAVnsBoxLayoutState@@@Z ; 4734
?Reflow@nsGfxButtonControlFrame@@UAGIPAVnsIPresContext@@AAUnsHTMLReflowMetrics@@ABUnsHTMLReflowState@@AAI@Z ; 4723
?QueryInterface@nsCaret@@UAGIABUnsID@@PAPAX@Z ; 4719
?GetMinSize@nsTextBoxFrame@@UAGIAAVnsBoxLayoutState@@AAUnsSize@@@Z ; 4671
?AddRectRegion@nsSpaceManager@@UAGIPAVnsIFrame@@ABUnsRect@@@Z ; 4662
??0FrameInfo@nsSpaceManager@@QAE@PAVnsIFrame@@ABUnsRect@@@Z ; 4662
?CreateFrameInfo@nsSpaceManager@@IAEPAUFrameInfo@1@PAVnsIFrame@@ABUnsRect@@@Z ; 4662
?GetFrameForPoint@nsSpringFrame@@UAGIPAVnsIPresContext@@ABUnsPoint@@W4nsFramePaintLayer@@PAPAVnsIFrame@@@Z ; 4610
?IsOutermostFrame@nsXULTreeGroupFrame@@UAGIPAH@Z ; 4580
?GetOverflow@nsBoxToBlockAdaptor@@UAGIAAUnsSize@@@Z ; 4577
?SetIncludeOverflow@nsBoxToBlockAdaptor@@UAGIH@Z ; 4577
?QueryInterface@nsScrollbarButtonFrame@@UAGIABUnsID@@PAPAX@Z ; 4562
?SetPrevInFlow@nsSplittableFrame@@UAGIPAVnsIFrame@@@Z ; 4504
?Paint@CanvasFrame@@UAGIPAVnsIPresContext@@AAVnsIRenderingContext@@ABUnsRect@@W4nsFramePaintLayer@@@Z ; 4467
?Layout@nsGfxScrollFrameInner@@QAEIAAVnsBoxLayoutState@@@Z ; 4465
?DoLayout@nsGfxScrollFrame@@UAGIAAVnsBoxLayoutState@@@Z ; 4465
?NeedsRecalc@nsImageBoxFrame@@UAGIXZ ; 4433
?AttributeChanged@nsProgressMeterFrame@@UAGIPAVnsIPresContext@@PAVnsIContent@@HPAVnsIAtom@@H@Z ; 4432
?GetMinSize@nsBox@@UAGIAAVnsBoxLayoutState@@AAUnsSize@@@Z ; 4419
?SetScrollbarVisibility@nsScrollFrame@@UAGIPAVnsIPresContext@@HH@Z ; 4416
?GetIntegerAttribute@nsSliderFrame@@SAHPAVnsIContent@@PAVnsIAtom@@H@Z ; 4395
?QueryInterface@nsListControlFrame@@UAGIABUnsID@@PAPAX@Z ; 4379
?IsInDropDownMode@nsListControlFrame@@IAEHXZ ; 4366
?InsertBandRect@nsSpaceManager@@IAEXPAUBandRect@1@@Z ; 4362
?NeedsRecalc@nsBoxToBlockAdaptor@@UAGIXZ ; 4339
?GetGroupFrame@nsTreeLayout@@IAEPAVnsXULTreeGroupFrame@@PAVnsIBox@@@Z ; 4327
?WipeContainingBlock@nsCSSFrameConstructor@@IAEHPAVnsIPresContext@@AAVnsFrameConstructorState@@PAVnsIContent@@PAVnsIFrame@@3@Z ; 4321
?SetView@nsFrame@@UAGIPAVnsIPresContext@@PAVnsIView@@@Z ; 4300
?GetRootFrame@FrameManager@@UBGIPAPAVnsIFrame@@@Z ; 4287
?Release@nsGfxScrollFrameInner@@UAGKXZ ; 4276
?GetMaxCellAscent@nsTableRowFrame@@QBEHXZ ; 4273
?GetOtherMonumentsAt@nsMonumentLayout@@UAGIPAVnsIBox@@HPAPAVnsBoxSizeList@@PAV1@@Z ; 4229
?ContentInserted@nsCSSFrameConstructor@@UAGIPAVnsIPresContext@@PAVnsIContent@@1HPAVnsILayoutHistoryState@@@Z ; 4219
?InvalidateDamage@nsTableOuterFrame@@IAEXPAVnsIPresContext@@EAAUnsSize@@HH@Z ; 4213
?IncrementalReflow@nsTableFrame@@MAGIPAVnsIPresContext@@ABUnsHTMLReflowState@@AAI@Z ; 4213
?IR_InnerTableReflow@nsTableOuterFrame@@MAGIPAVnsIPresContext@@AAUnsHTMLReflowMetrics@@ABUnsHTMLReflowState@@AAI@Z ; 4213
?IncrementalReflow@nsTableOuterFrame@@MAGIPAVnsIPresContext@@AAUnsHTMLReflowMetrics@@ABUnsHTMLReflowState@@AAI@Z ; 4213
?Notify@nsFrameImageLoader@@UAEXPAVnsIImageRequest@@PAVnsIImage@@W4nsImageNotification@@HHPAX@Z ; 4207
?IR_TargetIsChild@nsTableOuterFrame@@MAGIPAVnsIPresContext@@AAUnsHTMLReflowMetrics@@ABUnsHTMLReflowState@@AAIPAVnsIFrame@@@Z ; 4193
?IR_TargetIsInnerTableFrame@nsTableOuterFrame@@MAGIPAVnsIPresContext@@AAUnsHTMLReflowMetrics@@ABUnsHTMLReflowState@@AAI@Z ; 4193
?SetNameSpace@nsButtonFrameRenderer@@UAEXH@Z ; 4192
??0nsStyleSides@@QAE@XZ ; 4146
?IncrementalReflow@nsTableRowGroupFrame@@MAGIPAVnsIPresContext@@AAUnsHTMLReflowMetrics@@AAUnsRowGroupReflowState@@AAI@Z ; 4084
?RecoverState@nsTableFrame@@IAEIAAUnsTableReflowState@@PAVnsIFrame@@@Z ; 4084
?IR_TargetIsChild@nsTableFrame@@MAGIPAVnsIPresContext@@AAUnsTableReflowState@@AAIPAVnsIFrame@@@Z ; 4084
?GetFrameSelection@PresShell@@UAGIPAPAVnsIFrameSelection@@@Z ; 4078
?GetOtherTemple@nsMonumentLayout@@UAGIPAVnsIBox@@PAPAVnsTempleLayout@@PAPAV2@PAV1@@Z ; 4054
?QueryInterface@nsTextInputListener@@UAGIABUnsID@@PAPAX@Z ; 4048
?Release@nsListEventListener@@UAGKXZ ; 4047
?AddRef@nsListEventListener@@UAGKXZ ; 4047
?PaintText@nsOutlinerBodyFrame@@UAGIHPAVnsOutlinerColumn@@ABUnsRect@@PAVnsIPresContext@@AAVnsIRenderingContext@@1W4nsFramePaintLayer@@@Z ; 4002
?Reflow@nsPlaceholderFrame@@UAGIPAVnsIPresContext@@AAUnsHTMLReflowMetrics@@ABUnsHTMLReflowState@@AAI@Z ; 4001
??0nsAreaFrame@@IAE@XZ ; 3931
?GetMinSize@nsGfxTextControlFrame2@@UAGIAAVnsBoxLayoutState@@AAUnsSize@@@Z ; 3924
?RecoverState@nsTableRowGroupFrame@@IAEIAAUnsRowGroupReflowState@@PAVnsIFrame@@@Z ; 3917
?IncrementalReflow@nsTableRowFrame@@MAGIPAVnsIPresContext@@AAUnsHTMLReflowMetrics@@ABUnsHTMLReflowState@@AAVnsTableFrame@@AAI@Z ; 3917
?IsSimpleRowFrame@nsTableRowGroupFrame@@IAEHPAVnsTableFrame@@PAVnsIFrame@@@Z ; 3917
?IR_TargetIsChild@nsTableRowGroupFrame@@MAGIPAVnsIPresContext@@AAUnsHTMLReflowMetrics@@AAUnsRowGroupReflowState@@AAIPAVnsIFrame@@@Z ; 3917
?ContentAppended@PresShell@@UAGIPAVnsIDocument@@PAVnsIContent@@H@Z ; 3871
?ContentAppended@nsCSSFrameConstructor@@UAGIPAVnsIPresContext@@PAVnsIContent@@H@Z ; 3871
?PullOneFrame@nsInlineFrame@@MAEPAVnsIFrame@@PAVnsIPresContext@@AAUInlineReflowState@1@PAH@Z ; 3860
?Reflow@CanvasFrame@@UAGIPAVnsIPresContext@@AAUnsHTMLReflowMetrics@@ABUnsHTMLReflowState@@AAI@Z ; 3777
?AddFloater@nsLineLayout@@QAEXPAVnsPlaceholderFrame@@@Z ; 3776
?ReflowFloater@nsBlockFrame@@IAEIAAVnsBlockReflowState@@PAVnsPlaceholderFrame@@AAUnsRect@@AAUnsMargin@@3@Z ; 3776
?PlaceFloater@nsBlockReflowState@@QAEXPAVnsFloaterCache@@PAH@Z ; 3776
?Append@nsFloaterCacheFreeList@@QAEXPAVnsFloaterCache@@@Z ; 3776
?Alloc@nsFloaterCacheFreeList@@QAEPAVnsFloaterCache@@XZ ; 3776
?AddFloater@nsBlockReflowState@@QAEXAAVnsLineLayout@@PAVnsPlaceholderFrame@@H@Z ; 3776
?UpdateBand@nsLineLayout@@QAEXHHHHHPAVnsIFrame@@@Z ; 3771
?AdjustSiblingsAfterReflow@nsTableFrame@@MAGIPAVnsIPresContext@@AAUnsTableReflowState@@PAVnsIFrame@@H@Z ; 3757
??0nsTableCellReflowState@@QAE@PAVnsIPresContext@@ABUnsHTMLReflowState@@PAVnsIFrame@@ABUnsSize@@@Z ; 3751
?IR_TargetIsChild@nsTableRowFrame@@MAGIPAVnsIPresContext@@AAUnsHTMLReflowMetrics@@ABUnsHTMLReflowState@@AAVnsTableFrame@@AAIPAVnsIFrame@@@Z ; 3751
?UpdateFrames@nsLineLayout@@IAEXXZ ; 3746
?GetPrefSize@nsGfxTextControlFrame2@@UAGIAAVnsBoxLayoutState@@AAUnsSize@@@Z ; 3738
?FirstChild@ViewportFrame@@UBGIPAVnsIPresContext@@PAVnsIAtom@@PAPAVnsIFrame@@@Z ; 3711
?PostDOMEvent@PresShell@@UAGIPAVnsIContent@@PAUnsEvent@@@Z ; 3691
?PostScrollPortEvent@nsScrollBoxFrame@@MAEXPAVnsIPresShell@@HW4orientType@nsScrollPortEvent@@@Z ; 3691
?RowHasSpanningCells@nsTableCellMap@@QAEHH@Z ; 3680
?RowHasSpanningCells@nsCellMap@@QAEHAAVnsTableCellMap@@H@Z ; 3680
?RowHasSpanningCells@nsTableFrame@@QAEHH@Z ; 3680
?GetMaxWidth@nsTableOuterFrame@@IAEHEABUnsMargin@@0@Z ; 3643
?GetEffectiveColCount@nsTableFrame@@UAEHXZ ; 3636
?AppendFrames@FrameManager@@UAGIPAVnsIPresContext@@AAVnsIPresShell@@PAVnsIFrame@@PAVnsIAtom@@2@Z ; 3621
?AppendFrames@nsCSSFrameConstructor@@IAEIPAVnsIPresContext@@PAVnsIPresShell@@PAVnsIFrameManager@@PAVnsIContent@@PAVnsIFrame@@4@Z ; 3618
?GetState@nsLayoutHistoryState@@UAGIIPAPAVnsIPresState@@W4StateType@nsIStatefulFrame@@@Z ; 3617
?AddRemoveScrollbar@nsGfxScrollFrameInner@@QAEHAAVnsBoxLayoutState@@AAUnsRect@@HHH@Z ; 3612
?ContentRemoved@nsCSSFrameConstructor@@UAGIPAVnsIPresContext@@PAVnsIContent@@1H@Z ; 3584
?DamageRepairFrames@nsFrameImageLoader@@IAEXPBUnsRect@@@Z ; 3570
?GetOrientation@nsBox@@UAGIAAH@Z ; 3556
?UpdateSubmitter@nsFormFrame@@IAEXPAVnsIFormControlFrame@@@Z ; 3505
?QueryInterface@PresShellViewEventListener@@UAGIABUnsID@@PAPAX@Z ; 3460
?DoLayout@nsImageBoxFrame@@UAGIAAVnsBoxLayoutState@@@Z ; 3445
?Append@nsFloaterCacheList@@QAEXAAVnsFloaterCacheFreeList@@@Z ; 3406
?Destroy@nsLineBox@@QAEXPAVnsIPresShell@@@Z ; 3389
?SetupCachedSizes@nsFormControlFrame@@SAXAAUnsSize@@0AAUnsHTMLReflowMetrics@@@Z ; 3380
?Reflow@nsGfxScrollFrame@@UAGIPAVnsIPresContext@@AAUnsHTMLReflowMetrics@@ABUnsHTMLReflowState@@AAI@Z ; 3335
?GetNumberOfOptions@nsListControlFrame@@UAGIPAH@Z ; 3328
?GetFrameForPoint@nsHTMLButtonControlFrame@@UAGIPAVnsIPresContext@@ABUnsPoint@@W4nsFramePaintLayer@@PAPAVnsIFrame@@@Z ; 3327
?SafeToDestroy@nsFrameImageLoader@@UAGIPAH@Z ; 3321
?QueryInterface@nsImageMap@@UAGIABUnsID@@PAPAX@Z ; 3321
?RemoveFrame@nsFrameImageLoader@@UAGIPAX@Z ; 3321
?SetAnonymousContentFor@PresShell@@UAGIPAVnsIContent@@PAVnsISupportsArray@@@Z ; 3315
??0nsHTMLReflowState@@QAE@ABU0@@Z ; 3312
?GetNextMonument@nsMonumentIterator@@UAEHPAPAVnsIMonument@@H@Z ; 3281
?RenumberListsIn@nsBlockFrame@@IAEHPAVnsIPresContext@@PAVnsIFrame@@PAHH@Z ; 3255
?CreateInputFrame@nsCSSFrameConstructor@@IAEIPAVnsIPresShell@@PAVnsIPresContext@@PAVnsIContent@@AAPAVnsIFrame@@PAVnsIStyleContext@@@Z ; 3244
?Paint@nsScrollBoxFrame@@UAGIPAVnsIPresContext@@AAVnsIRenderingContext@@ABUnsRect@@W4nsFramePaintLayer@@@Z ; 3234
?AddVerticalScrollbar@nsGfxScrollFrameInner@@QAEHAAVnsBoxLayoutState@@AAUnsRect@@H@Z ; 3233
?Paint@nsGfxScrollFrame@@UAGIPAVnsIPresContext@@AAVnsIRenderingContext@@ABUnsRect@@W4nsFramePaintLayer@@@Z ; 3222
?GetLastRowSibling@@YAPAVnsIFrame@@PAV1@@Z ; 3212
?GetFrameYMost@@YAHPAVnsIFrame@@@Z ; 3212
?GetAscent@nsTextBoxFrame@@UAGIAAVnsBoxLayoutState@@AAH@Z ; 3209
?NS_NewAreaFrame@@YAIPAVnsIPresShell@@PAPAVnsIFrame@@I@Z ; 3202
?CreateRenderingContext@PresShell@@UAGIPAVnsIFrame@@PAPAVnsIRenderingContext@@@Z ; 3195
?SetScrollbarVisibility@nsGfxScrollFrameInner@@QAEXPAVnsIBox@@H@Z ; 3191
?AddRemoveScrollbar@nsGfxScrollFrameInner@@QAEHAAH00HHH@Z ; 3187
?PaintTitle@nsTextBoxFrame@@MAGIPAVnsIPresContext@@AAVnsIRenderingContext@@ABUnsRect@@2@Z ; 3180
?InsertFrames@nsFrameList@@QAEXPAVnsIFrame@@00@Z ; 3162
?Clone@nsISupportsKey@@UBEPAVnsHashKey@@XZ ; 3158
??_EnsISupportsKey@@UAEPAXI@Z ; 3158
?LayoutTitle@nsTextBoxFrame@@MAEXPAVnsIPresContext@@AAVnsIRenderingContext@@ABUnsRect@@@Z ; 3144
?CalculateUnderline@nsTextBoxFrame@@MAEXAAVnsIRenderingContext@@@Z ; 3134
?FrameChanged@nsImageBoxListener@@UAGIPAVimgIContainer@@PAVnsISupports@@PAVgfxIImageFrame@@PAUnsRect@@@Z ; 3097
?AddFormControlFrame@nsFormFrame@@QAEXPAVnsIPresContext@@AAVnsIFormControlFrame@@@Z ; 3089
?GetSelection@PresShell@@UAGIFPAPAVnsISelection@@@Z ; 3075
??0nsLayoutIterator@@QAE@PAVnsIBox@@@Z ; 3042
??_EHistoryKey@@UAEPAXI@Z ; 3021
?GetFrameForPoint@nsTitleBarFrame@@UAGIPAVnsIPresContext@@ABUnsPoint@@W4nsFramePaintLayer@@PAPAVnsIFrame@@@Z ; 3016
?HandleDrag@nsFrame@@UAGIPAVnsIPresContext@@PAUnsGUIEvent@@PAW4nsEventStatus@@@Z ; 3006
?SetNextBox@nsBox@@UAGIPAVnsIBox@@@Z ; 2946
?CaptureStateForFramesOf@nsCSSFrameConstructor@@IAEIPAVnsIPresContext@@PAVnsIContent@@PAVnsILayoutHistoryState@@@Z ; 2937
?QueryInterface@nsComboboxControlFrame@@UAGIABUnsID@@PAPAX@Z ; 2894
?GetValue@nsHTMLButtonControlFrame@@UAGIPAVnsString@@@Z ; 2882
?GetRepChars@nsFormControlHelper@@SA?AW4nsCompatibility@@PAVnsIPresContext@@AAD1@Z ; 2830
?AllocateUnconstrained@BasicTableLayoutStrategy@@IAEXHPAHHHHHM@Z ; 2802
?DisplayAltFeedback@nsImageFrame@@IAEXPAVnsIPresContext@@AAVnsIRenderingContext@@H@Z ; 2790
?Paint@nsGfxTextControlFrame2@@UAGIPAVnsIPresContext@@AAVnsIRenderingContext@@ABUnsRect@@W4nsFramePaintLayer@@@Z ; 2790
?QueryInterface@nsMenuBarListener@@UAGIABUnsID@@PAPAX@Z ; 2788
?CastToGrid@nsGridLayout@@UAGIPAPAV1@@Z ; 2781
?ClearUndisplayedContentIn@FrameManager@@UAGIPAVnsIContent@@0@Z ; 2774
??_GnsStackFrame@@UAEPAXI@Z ; 2761
?Release@nsMenuListener@@UAGKXZ ; 2752
?GetStringValue@nsHTMLValue@@QBEAAVnsAString@@AAV2@@Z ; 2746
?RecreateFramesForContent@nsCSSFrameConstructor@@IAEIPAVnsIPresContext@@PAVnsIContent@@@Z ; 2741
?AllocateConstrained@BasicTableLayoutStrategy@@IAEXHHHPAHM@Z ; 2738
?Init@nsLeafBoxFrame@@UAGIPAVnsIPresContext@@PAVnsIContent@@PAVnsIFrame@@PAVnsIStyleContext@@2@Z ; 2721
??0nsLeafBoxFrame@@IAE@PAVnsIPresShell@@@Z ; 2721
?AddSmallestSize@nsBoxLayout@@UAEXAAUnsSize@@ABU2@@Z ; 2703
?AC_Wrapup@@YAXPAVnsTableFrame@@HPAPAUnsColInfo@@H@Z ; 2688
?AC_Sort@@YAXPAPAUnsColInfo@@H@Z ; 2688
?CreateGeneratedFrameFor@nsCSSFrameConstructor@@IAEIPAVnsIPresContext@@PAVnsIDocument@@PAVnsIFrame@@PAVnsIContent@@PAVnsIStyleContext@@PBUnsStyleContent@@IPAPAV4@@Z ; 2626
?HandleEvent@nsBlockFrame@@UAGIPAVnsIPresContext@@PAUnsGUIEvent@@PAW4nsEventStatus@@@Z ; 2618
?Reflow@nsBulletFrame@@UAGIPAVnsIPresContext@@AAUnsHTMLReflowMetrics@@ABUnsHTMLReflowState@@AAI@Z ; 2611
?GetDesiredSize@nsBulletFrame@@IAEXPAVnsIPresContext@@ABUnsHTMLReflowState@@AAUnsHTMLReflowMetrics@@@Z ; 2611
?SetFormFrame@nsHTMLButtonControlFrame@@UAEXPAVnsFormFrame@@@Z ; 2550
?GetContentOf@nsSliderFrame@@AAEXPAVnsIBox@@PAPAVnsIContent@@@Z ; 2493
?GetFrameFontFM@nsFormControlHelper@@SAIPAVnsIPresContext@@PAVnsIFormControlFrame@@PAPAVnsIFontMetrics@@@Z ; 2460
?GetFont@nsFormControlHelper@@SAIPAVnsIFormControlFrame@@PAVnsIPresContext@@PAVnsIStyleContext@@AAPBUnsFont@@@Z ; 2460
?RequiresWidget@nsImageControlFrame@@UAEIAAH@Z ; 2460
?AppendFrames@nsBlockFrame@@UAGIPAVnsIPresContext@@AAVnsIPresShell@@PAVnsIAtom@@PAVnsIFrame@@@Z ; 2453
?HasStyleChange@nsBox@@MAEHXZ ; 2448
?FindLineContaining@nsLineBox@@SAPAV1@PAV1@PAVnsIFrame@@PAH@Z ; 2434
?GetFormElementRenderingMode@nsCSSFrameConstructor@@IAE?AW4nsWidgetRendering@@PAVnsIPresContext@@W4nsWidgetType@@@Z ; 2402
?LastLine@nsLineBox@@SAPAV1@PAV1@@Z ; 2378
?CastToObelisk@nsGridLayout@@UAGIPAPAVnsObeliskLayout@@@Z ; 2343
?GetCurrentPosition@nsSliderFrame@@SAHPAVnsIContent@@@Z ; 2339
?ReParentStyleContext@FrameManager@@UAGIPAVnsIPresContext@@PAVnsIFrame@@PAVnsIStyleContext@@@Z ; 2324
?CacheImageSize@nsImageBoxFrame@@IAEXAAVnsBoxLayoutState@@@Z ; 2315
?GetImageSize@nsImageBoxFrame@@MAEXPAVnsIPresContext@@@Z ; 2315
?AC_Increase@@YAXHPAPAUnsColInfo@@HAAHM@Z ; 2303
?UpdateAttributes@nsImageBoxFrame@@UAEXPAVnsIPresContext@@PAVnsIAtom@@AAH2@Z ; 2300
?GetArea@Area@@QBEXPAPAVnsIContent@@@Z ; 2260
?GetPrefSize@nsBoxToBlockAdaptor@@UAGIAAVnsBoxLayoutState@@AAUnsSize@@@Z ; 2231
??0ReflowEvent@@QAE@PAVnsIPresShell@@@Z ; 2218
?SetInitialValue@nsGfxTextControlFrame2@@IAEIXZ ; 2218
?HandleEvent@ReflowEvent@@QAEXXZ ; 2215
?SetReflowEventStatus@PresShell@@IAEIH@Z ; 2215
?GetReflowBatchingStatus@PresShell@@UAGIPAH@Z ; 2215
?GetStyleSize@nsFormControlFrame@@SAXPAVnsIPresContext@@ABUnsHTMLReflowState@@AAUnsSize@@@Z ; 2213
?OnStopFrame@nsImageBoxListener@@UAGIPAVimgIRequest@@PAVnsISupports@@PAVgfxIImageFrame@@@Z ; 2208
?GetLoadGroup@nsImageBoxFrame@@IAEXPAVnsIPresContext@@PAPAVnsILoadGroup@@@Z ; 2200
?OnStopDecode@nsImageBoxListener@@UAGIPAVimgIRequest@@PAVnsISupports@@IPBG@Z ; 2200
?AppendFrames@nsTableCellFrame@@UAGIPAVnsIPresContext@@AAVnsIPresShell@@PAVnsIAtom@@PAVnsIFrame@@@Z ; 2200
?CanPlaceFloater@nsBlockReflowState@@QAEHABUnsRect@@E@Z ; 2198
?QueryInterface@nsBoxLayout@@UAGIABUnsID@@PAPAX@Z ; 2191
?KillTimer@nsCaret@@IAEXXZ ; 2190
?FrameChanged@nsImageListener@@UAGIPAVimgIContainer@@PAVnsISupports@@PAVgfxIImageFrame@@PAUnsRect@@@Z ; 2176
?FrameChanged@nsImageFrame@@UAGIPAVimgIContainer@@PAVnsIPresContext@@PAVgfxIImageFrame@@PAUnsRect@@@Z ; 2176
?OnStartContainer@nsImageBoxFrame@@UAGIPAVimgIRequest@@PAVnsIPresContext@@PAVimgIContainer@@@Z ; 2173
?OnStopContainer@nsImageBoxListener@@UAGIPAVimgIRequest@@PAVnsISupports@@PAVimgIContainer@@@Z ; 2173
?OnStartDecode@nsImageBoxListener@@UAGIPAVimgIRequest@@PAVnsISupports@@@Z ; 2173
?GetScrolledSize@nsScrollBoxObject@@UAGIPAH0@Z ; 2173
?NS_NewBoxFrame@@YAIPAVnsIPresShell@@PAPAVnsIFrame@@HPAVnsIBoxLayout@@@Z ; 2131
?InitAccessKey@nsMenuBarListener@@KAXXZ ; 2128
?AddRef@nsBrowserBoxObject@@UAGKXZ ; 2117
?Release@nsBrowserBoxObject@@UAGKXZ ; 2117
?RenderSide@nsCSSRendering@@KAXQAUnsFloatPoint@@AAVnsIRenderingContext@@PBUnsStyleBorder@@PBUnsStyleOutline@@PAVnsIStyleContext@@EAAUnsMargin@@HH@Z ; 2108
?SetFrame@nsButtonFrameRenderer@@UAEXPAVnsFrame@@PAVnsIPresContext@@@Z ; 2096
?SetInitialChildList@nsHTMLButtonControlFrame@@UAGIPAVnsIPresContext@@PAVnsIAtom@@PAVnsIFrame@@@Z ; 2096
??1nsButtonFrameRenderer@@UAE@XZ ; 2096
?NS_NewGfxButtonControlFrame@@YAIPAVnsIPresShell@@PAPAVnsIFrame@@@Z ; 2096
?CreateFrameFor@nsGfxButtonControlFrame@@UAGIPAVnsIPresContext@@PAVnsIContent@@PAPAVnsIFrame@@@Z ; 2096
?CreateAnonymousContent@nsGfxButtonControlFrame@@UAGIPAVnsIPresContext@@AAVnsISupportsArray@@@Z ; 2096
?ConstructButtonControlFrame@nsCSSFrameConstructor@@IAEIPAVnsIPresShell@@PAVnsIPresContext@@AAPAVnsIFrame@@@Z ; 2096
?Init@nsHTMLButtonControlFrame@@UAGIPAVnsIPresContext@@PAVnsIContent@@PAVnsIFrame@@PAVnsIStyleContext@@2@Z ; 2096
??_EnsGfxButtonControlFrame@@UAEPAXI@Z ; 2096
??0nsHTMLButtonControlFrame@@QAE@XZ ; 2096
??0nsButtonFrameRenderer@@QAE@XZ ; 2096
??1nsHTMLButtonControlFrame@@UAE@XZ ; 2096
??0nsGfxButtonControlFrame@@QAE@XZ ; 2096
?Destroy@nsHTMLButtonControlFrame@@UAGIPAVnsIPresContext@@@Z ; 2096
?ReResolveStyles@nsButtonFrameRenderer@@UAEXPAVnsIPresContext@@@Z ; 2096
?GetAscent@nsBox@@UAGIAAVnsBoxLayoutState@@AAH@Z ; 2085
?FreeLineBox@nsBlockReflowState@@QAEXPAVnsLineBox@@@Z ; 2074
?CalcSidesFor@@YAXPBVnsIFrame@@ABVnsStyleSides@@EPBHHAAUnsMargin@@@Z ; 2073
??0nsRecessedBorder@@QAE@H@Z ; 2073
?PullFrame@nsFrameList@@QAEPAVnsIFrame@@PAV2@0AAV1@@Z ; 2064
?LocateFrame@nsXULTreeGroupFrame@@IAEXPAVnsIFrame@@PAPAV2@@Z ; 2062
?CalcNavQuirkSizing@nsFormControlHelper@@SAHPAVnsIPresContext@@PAVnsIRenderingContext@@PAVnsIFontMetrics@@PAVnsIFormControlFrame@@AAUnsInputDimensionSpec@@AAUnsSize@@@Z ; 2056
?GetOnScreenRowCount@nsXULTreeGroupFrame@@UAGIPAH@Z ; 2051
?GetMaxPosition@nsSliderFrame@@SAHPAVnsIContent@@@Z ; 2050
?ContinueReflow@nsXULTreeGroupFrame@@QAEHH@Z ; 2023
?GetCaret@PresShell@@UAGIPAPAVnsICaret@@@Z ; 2022
?ReflowDirtyChild@nsContainerFrame@@UAGIPAVnsIPresShell@@PAVnsIFrame@@@Z ; 2005
?CalcBorderPadding@nsFrame@@UBGIAAUnsMargin@@@Z ; 1989
?IsHorizontal@nsBoxFrame@@UBEHXZ ; 1974
?ReflowDirtyChild@nsInlineFrame@@UAGIPAVnsIPresShell@@PAVnsIFrame@@@Z ; 1972
?GetMaxSize@nsBoxToBlockAdaptor@@UAGIAAVnsBoxLayoutState@@AAUnsSize@@@Z ; 1960
?Reflow@nsRootBoxFrame@@UAGIPAVnsIPresContext@@AAUnsHTMLReflowMetrics@@ABUnsHTMLReflowState@@AAI@Z ; 1959
?GetNextTreeBox@nsXULTreeGroupFrame@@QAEPAVnsIBox@@PAV2@PAH@Z ; 1949
?GetOtherTemple@nsGridLayout@@UAGIPAVnsIBox@@PAPAVnsTempleLayout@@PAPAV2@PAVnsMonumentLayout@@@Z ; 1936
?ClearFloaters@nsBlockBandData@@QAEHHE@Z ; 1932
?ClearFloaters@nsBlockReflowState@@QAEXHE@Z ; 1932
?Release@nsLayoutFactory@@UAGKXZ ; 1931
?GetPrefSize@nsXULTreeSliceFrame@@UAGIAAVnsBoxLayoutState@@AAUnsSize@@@Z ; 1918
?MustDrawCaret@nsCaret@@IAEHXZ ; 1910
?DrawCaret@nsCaret@@IAEXXZ ; 1910
?CreateInstance@nsLayoutFactory@@UAGIPAVnsISupports@@ABUnsID@@PAPAX@Z ; 1902
?ReflowBullet@nsBlockFrame@@IAEXAAVnsBlockReflowState@@AAUnsHTMLReflowMetrics@@@Z ; 1901
?IsZeroHeight@nsLineLayout@@QAEHXZ ; 1901
?GetMaxSize@nsGfxTextControlFrame2@@UAGIAAVnsBoxLayoutState@@AAUnsSize@@@Z ; 1885
?GetViewForRendering@nsCaret@@IAEXPAVnsIFrame@@W4EViewCoordinates@nsICaret@@AAUnsPoint@@AAUnsRect@@AAPAVnsIView@@@Z ; 1884
?GetMaxSize@nsSliderFrame@@UAGIAAVnsBoxLayoutState@@AAUnsSize@@@Z ; 1879
?GetFrameType@nsHTMLFrameOuterFrame@@UBGIPAPAVnsIAtom@@@Z ; 1870
?GetAscent@nsGfxTextControlFrame2@@UAGIAAVnsBoxLayoutState@@AAH@Z ; 1869
?AddBulletFrame@nsLineLayout@@QAEIPAVnsIFrame@@ABUnsHTMLReflowMetrics@@@Z ; 1856
?GetSpaceBetween@@YAHHHHAAVnsTableFrame@@HH@Z ; 1791
?GetMinSize@nsBoxToBlockAdaptor@@UAGIAAVnsBoxLayoutState@@AAUnsSize@@@Z ; 1782
?QueryInterface@nsXULTreeOuterGroupFrame@@UAGIABUnsID@@PAPAX@Z ; 1776
?RemoveFromFlow@nsSplittableFrame@@SAXPAVnsIFrame@@@Z ; 1773
?StyleChangeReflow@nsCSSFrameConstructor@@IAEIPAVnsIPresContext@@PAVnsIFrame@@PAVnsIAtom@@@Z ; 1764
?do_GetService@@YA?BVnsGetServiceByContractID@@PBDPAI@Z ; 1761
?UpdateAttributes@nsTextBoxFrame@@UAEXPAVnsIPresContext@@PAVnsIAtom@@AAH2@Z ; 1760
?GetProperty@nsHTMLButtonControlFrame@@UAGIPAVnsIAtom@@AAVnsAString@@@Z ; 1759
?SaveState@nsGfxButtonControlFrame@@MAGIPAVnsIPresContext@@PAPAVnsIPresState@@@Z ; 1757
?GetMaxNumValues@nsComboboxControlFrame@@UAEHXZ ; 1745
?IsInline@nsHTMLFrameOuterFrame@@QAEHXZ ; 1737
?GetMenuAccessKey@nsMenuBarListener@@SAIPAH@Z ; 1737
?RestoreCaretVisibility@PresShellViewEventListener@@AAEIXZ ; 1730
?HideCaret@PresShellViewEventListener@@AAEIXZ ; 1730
?ContentStatesChanged@nsCSSFrameConstructor@@UAGIPAVnsIPresContext@@PAVnsIContent@@1@Z ; 1723
?ContentStatesChanged@PresShell@@UAGIPAVnsIDocument@@PAVnsIContent@@1@Z ; 1723
?MarkStyleChange@nsBox@@UAGIAAVnsBoxLayoutState@@@Z ; 1697
?DoLayout@nsTextBoxFrame@@UAGIAAVnsBoxLayoutState@@@Z ; 1685
?Paint@nsSliderFrame@@UAGIPAVnsIPresContext@@AAVnsIRenderingContext@@ABUnsRect@@W4nsFramePaintLayer@@@Z ; 1680
?DidRefreshRect@PresShellViewEventListener@@UAGIPAVnsIViewManager@@PAVnsIView@@PAVnsIRenderingContext@@PBUnsRect@@I@Z ; 1651
?WillRefreshRegion@PresShellViewEventListener@@UAGIPAVnsIViewManager@@PAVnsIView@@PAVnsIRenderingContext@@PAVnsIRegion@@I@Z ; 1651
?GetCaretEnabled@PresShell@@UAGIPAH@Z ; 1641
?GetMinSize@nsSliderFrame@@UAGIAAVnsBoxLayoutState@@AAUnsSize@@@Z ; 1639
?RenumberListsInBlock@nsBlockFrame@@IAEHPAVnsIPresContext@@PAV1@PAHH@Z ; 1639
?Draw@RectArea@@UAEXPAVnsIPresContext@@AAVnsIRenderingContext@@@Z ; 1620
?SetURL@nsHTMLImageLoader@@IAEXABVnsString@@@Z ; 1615
?StopAllLoadImages@nsHTMLImageLoader@@QAEXPAVnsIPresContext@@@Z ; 1615
??1nsBulletFrame@@UAE@XZ ; 1615
?Init@nsHTMLImageLoader@@QAEXPAVnsIFrame@@P6AIPAVnsIPresContext@@PAV1@0PAXI@Z3PAVnsIURI@@ABVnsString@@@Z ; 1615
??0nsBulletFrame@@QAE@XZ ; 1615
?Destroy@nsBulletFrame@@UAGIPAVnsIPresContext@@@Z ; 1615
??_EnsBulletFrame@@UAEPAXI@Z ; 1615
?Init@nsBulletFrame@@UAGIPAVnsIPresContext@@PAVnsIContent@@PAVnsIFrame@@PAVnsIStyleContext@@2@Z ; 1615
?SkipResizeReflow@nsFormControlFrame@@SAXAAUnsSize@@00AAUnsHTMLReflowMetrics@@ABUnsHTMLReflowState@@AAIAAH4@Z ; 1611
?Clone@nsTransitionKey@@UBEPAVnsHashKey@@XZ ; 1608
??_EnsTransitionKey@@UAEPAXI@Z ; 1608
?DeleteDFAState@nsOutlinerStyleCache@@SAHPAVnsHashKey@@PAX1@Z ; 1608
?IsSingleLineTextControl@nsGfxTextControlFrame2@@MBEHXZ ; 1607
?NeedsRecalc@nsTextBoxFrame@@UAGIXZ ; 1593
??0nsMonumentIterator@@QAE@PAVnsIBox@@@Z ; 1578
?GetFormContent@nsGfxTextControlFrame2@@UBGIAAPAVnsIContent@@@Z ; 1576
?GetColRowSizeAttr@nsGfxTextControlFrame2@@IAEIPAVnsIFormControlFrame@@PAVnsIAtom@@AAVnsHTMLValue@@AAI123@Z ; 1569
?GetSizeFromContent@nsGfxTextControlFrame2@@IBEIPAH@Z ; 1567
?QueryInterface@nsGfxRadioControlFrame@@UAGIABUnsID@@PAPAX@Z ; 1566
??0nsButtonBoxFrame@@QAE@PAVnsIPresShell@@@Z ; 1564
?QueryInterface@nsMenuFrame@@UAGIABUnsID@@PAPAX@Z ; 1556
?GetFont@nsHTMLButtonControlFrame@@UAGIPAVnsIPresContext@@AAPBUnsFont@@@Z ; 1548
?DoRemoveFrame@nsBlockFrame@@IAEIPAVnsIPresContext@@PAVnsIFrame@@@Z ; 1540
?QueryInterface@nsBrowserBoxObject@@UAGIABUnsID@@PAPAX@Z ; 1522
?Release@nsLayoutHistoryState@@UAGKXZ ; 1521
?Paint@nsHTMLButtonControlFrame@@UAGIPAVnsIPresContext@@AAVnsIRenderingContext@@ABUnsRect@@W4nsFramePaintLayer@@@Z ; 1509
?PaintOutlineAndFocusBorders@nsButtonFrameRenderer@@UAEXPAVnsIPresContext@@AAVnsIRenderingContext@@ABUnsRect@@W4nsFramePaintLayer@@2@Z ; 1509
?PaintButton@nsButtonFrameRenderer@@UAEXPAVnsIPresContext@@AAVnsIRenderingContext@@ABUnsRect@@W4nsFramePaintLayer@@2@Z ; 1509
?PaintBorderAndBackground@nsButtonFrameRenderer@@UAEXPAVnsIPresContext@@AAVnsIRenderingContext@@ABUnsRect@@W4nsFramePaintLayer@@2@Z ; 1509
?RemoveFormControlFrame@nsFormFrame@@QAEXAAVnsIFormControlFrame@@@Z ; 1508
?ConstructTableForeignFrame@nsCSSFrameConstructor@@IAEIPAVnsIPresShell@@PAVnsIPresContext@@AAVnsFrameConstructorState@@PAVnsIContent@@PAVnsIFrame@@PAVnsIStyleContext@@AAUnsTableCreator@@AAUnsFrameItems@@AAPAV6@AAH@Z ; 1499
?Release@nsPresState@@UAGKXZ ; 1475
?GetAvailableHeight@nsXULTreeGroupFrame@@UAEHXZ ; 1473
?IsInside@RectArea@@UAEHHH@Z ; 1473
?BuildBoxSizeList@nsTempleLayout@@UAGIPAVnsIBox@@AAVnsBoxLayoutState@@AAPAVnsBoxSize@@2H@Z ; 1464
?GetStateType@nsComboboxControlFrame@@UAGIPAVnsIPresContext@@PAW4StateType@nsIStatefulFrame@@@Z ; 1458
?Add@nsBoxSize@@QAEXABUnsSize@@00HHH@Z ; 1455
?Init@nsLineIterator@@QAEIPAVnsLineBox@@H@Z ; 1448
??_GnsLineIterator@@UAEPAXI@Z ; 1448
?Release@nsLineIterator@@UAGKXZ ; 1448
??1nsLineIterator@@UAE@XZ ; 1448
??0nsLineIterator@@QAE@XZ ; 1448
?QueryInterface@nsImageControlFrame@@UAGIABUnsID@@PAPAX@Z ; 1446
?AttributeChanged@nsSliderFrame@@UAGIPAVnsIPresContext@@PAVnsIContent@@HPAVnsIAtom@@H@Z ; 1445
?HasGfxScrollbars@nsCSSFrameConstructor@@IAEHXZ ; 1440
?GetFrameForPoint@nsRootBoxFrame@@UAGIPAVnsIPresContext@@ABUnsPoint@@W4nsFramePaintLayer@@PAPAVnsIFrame@@@Z ; 1434
?GetLine@nsLineIterator@@UAGIHPAPAVnsIFrame@@PAHAAUnsRect@@PAI@Z ; 1417
?GetMinSize@nsStackLayout@@UAGIPAVnsIBox@@AAVnsBoxLayoutState@@AAUnsSize@@@Z ; 1417
?MarkDirtyChildren@nsBox@@UAGIAAVnsBoxLayoutState@@@Z ; 1405
?SetSelected@nsTextFrame@@UAGIPAVnsIPresContext@@PAVnsIDOMRange@@HW4nsSpread@@@Z ; 1404
?GetOuterFrame@nsTreeLayout@@IAEPAVnsXULTreeOuterGroupFrame@@PAVnsIBox@@@Z ; 1401
?SetOverflowClipRect@nsFrame@@IAEXAAVnsIRenderingContext@@@Z ; 1400
?Paint@nsXULTreeGroupFrame@@UAGIPAVnsIPresContext@@AAVnsIRenderingContext@@ABUnsRect@@W4nsFramePaintLayer@@@Z ; 1398
?GetTextSize@nsTextBoxFrame@@MAEXPAVnsIPresContext@@AAVnsIRenderingContext@@ABVnsString@@AAUnsSize@@AAH@Z ; 1391
?GetNoShade@HRuleFrame@@IAEHXZ ; 1383
?GetButtonOuterFocusBorderAndPadding@nsButtonFrameRenderer@@UAE?AUnsMargin@@XZ ; 1379
?RemoveFrame@nsFrameList@@QAEHPAVnsIFrame@@@Z ; 1374
?GetMaxSize@nsStackLayout@@UAGIPAVnsIBox@@AAVnsBoxLayoutState@@AAUnsSize@@@Z ; 1367
?GetScrolledFrame@nsGfxScrollFrame@@UBGIPAVnsIPresContext@@AAPAVnsIFrame@@@Z ; 1366
?GetChildFrameContainingOffset@nsTextFrame@@UAGIHHPAHPAPAVnsIFrame@@@Z ; 1364
?GetAscent@nsStackLayout@@UAGIPAVnsIBox@@AAVnsBoxLayoutState@@AAH@Z ; 1364
?Reflow@HRuleFrame@@UAGIPAVnsIPresContext@@AAUnsHTMLReflowMetrics@@ABUnsHTMLReflowState@@AAI@Z ; 1361
??1nsImageBoxFrame@@UAE@XZ ; 1358
?NS_NewImageBoxFrame@@YAIPAVnsIPresShell@@PAPAVnsIFrame@@@Z ; 1358
??0nsImageBoxFrame@@IAE@PAVnsIPresShell@@@Z ; 1358
?Destroy@nsImageBoxFrame@@UAGIPAVnsIPresContext@@@Z ; 1358
??1nsImageBoxListener@@UAE@XZ ; 1358
?Init@nsImageBoxFrame@@UAGIPAVnsIPresContext@@PAVnsIContent@@PAVnsIFrame@@PAVnsIStyleContext@@2@Z ; 1358
??0nsImageBoxListener@@QAE@XZ ; 1358
??_EnsImageBoxFrame@@UAEPAXI@Z ; 1358
??_GnsImageBoxListener@@UAEPAXI@Z ; 1358
?InvalidateCachedState@nsGfxTextControlFrame2@@IAEXXZ ; 1339
?MoveTo@nsListControlFrame@@UAGIPAVnsIPresContext@@HH@Z ; 1338
?SetDisplaySelection@nsTextInputSelectionImpl@@UAGIF@Z ; 1333
?GetMultiple@nsListControlFrame@@UAGIPAHPAVnsIDOMHTMLSelectElement@@@Z ; 1326
?QueryInterface@nsFormControlFrame@@UAGIABUnsID@@PAPAX@Z ; 1326
?AttributeChanged@nsScrollbarFrame@@UAGIPAVnsIPresContext@@PAVnsIContent@@HPAVnsIAtom@@H@Z ; 1324
?Release@nsCSSFrameConstructor@@UAGKXZ ; 1320
?Release@NodeArena@nsDST@@QAEXXZ ; 1316
??1nsDST@@QAE@XZ ; 1316
??0nsDST@@QAE@PAVNodeArena@0@K@Z ; 1316
?SetScrollbarVisibility@nsGfxScrollFrame@@UAGIPAVnsIPresContext@@HH@Z ; 1312
?MustGeneratePseudoParent@nsCSSFrameConstructor@@IAEHPAVnsIPresContext@@PAVnsIFrame@@PAVnsIAtom@@PAVnsIContent@@PAVnsIStyleContext@@@Z ; 1307
?Reflow@nsGfxTextControlFrame2@@UAGIPAVnsIPresContext@@AAUnsHTMLReflowMetrics@@ABUnsHTMLReflowState@@AAI@Z ; 1306
?GetStyleContextFor@PresShell@@UBGIPAVnsIFrame@@PAPAVnsIStyleContext@@@Z ; 1289
?StoreMaxElementSize@nsBlockBandData@@SAXPAVnsIPresContext@@PAVnsIFrame@@ABUnsSize@@@Z ; 1289
?DeleteChildsNextInFlow@nsContainerFrame@@UAEXPAVnsIPresContext@@PAVnsIFrame@@@Z ; 1286
?BreakFromPrevFlow@nsSplittableFrame@@SAXPAVnsIFrame@@@Z ; 1286
?GetAdditionalChildListName@ViewportFrame@@UBGIHPAPAVnsIAtom@@@Z ; 1276
?GetPrefSize@nsStackLayout@@UAGIPAVnsIBox@@AAVnsBoxLayoutState@@AAUnsSize@@@Z ; 1275
?GetMonumentList@nsTempleLayout@@UAGIPAVnsIBox@@AAVnsBoxLayoutState@@PAPAVnsBoxSizeList@@@Z ; 1265
?BuildBoxSizeList@nsMonumentLayout@@UAGIPAVnsIBox@@AAVnsBoxLayoutState@@AAPAVnsBoxSize@@2H@Z ; 1257
?GetSelectionContr@nsGfxTextControlFrame2@@UAGIPAPAVnsISelectionController@@@Z ; 1255
?UpdateMonuments@nsObeliskLayout@@MAEXPAVnsIBox@@AAVnsBoxLayoutState@@@Z ; 1254
?GetMonumentList@nsMonumentLayout@@UAGIPAVnsIBox@@AAVnsBoxLayoutState@@PAPAVnsBoxSizeList@@@Z ; 1198
?SetPrevInFlow@nsContinuingTextFrame@@UAGIPAVnsIFrame@@@Z ; 1165
?GetFlex@nsBoxToBlockAdaptor@@UAGIAAVnsBoxLayoutState@@AAH@Z ; 1159
?Paint@nsHTMLFrameInnerFrame@@UAGIPAVnsIPresContext@@AAVnsIRenderingContext@@ABUnsRect@@W4nsFramePaintLayer@@@Z ; 1158
?GetAscent@nsBoxToBlockAdaptor@@UAGIAAVnsBoxLayoutState@@AAH@Z ; 1157
?GetDocument@nsTextFrame@@QAEPAVnsIDocument@@PAVnsIPresContext@@@Z ; 1156
?SetListItemOrdinal@nsBulletFrame@@QAEHHPAH@Z ; 1152
?ScrollbarChanged@nsGfxScrollFrameInner@@QAEXPAVnsIPresContext@@HH@Z ; 1147
?GetFirstTreeBox@nsXULTreeGroupFrame@@QAEPAVnsIBox@@PAH@Z ; 1143
?LazyRowCreator@nsTreeLayout@@UAGIAAVnsBoxLayoutState@@PAVnsXULTreeGroupFrame@@@Z ; 1143
?AddArea@nsImageMap@@IAEIPAVnsIContent@@@Z ; 1127
?ParseCoords@Area@@QAEXABVnsString@@@Z ; 1127
??0Area@@QAE@PAVnsIContent@@HH@Z ; 1127
?SetCaretVisible@nsCaret@@UAGIH@Z ; 1126
?GetMaxElementSize@nsBlockBandData@@QBEXPAVnsIPresContext@@PAH1@Z ; 1121
?ComputeLineMaxElementSize@nsBlockFrame@@IAEXAAVnsBlockReflowState@@PAVnsLineBox@@PAUnsSize@@@Z ; 1121
?Release@nsSplitterFrameInner@@UAGKXZ ; 1106
?ContentInserted@PresShell@@UAGIPAVnsIDocument@@PAVnsIContent@@1H@Z ; 1103
??0RectArea@@QAE@PAVnsIContent@@HH@Z ; 1102
?GetPrefSize@nsSliderFrame@@UAGIAAVnsBoxLayoutState@@AAUnsSize@@@Z ; 1098
??1Area@@UAE@XZ ; 1097
?SetPlaceholderFrameFor@FrameManager@@UAGIPAVnsIFrame@@0@Z ; 1088
?Put@FrameHashTable@@QAEPAXPAX0@Z ; 1084
?NS_NewPlaceholderFrame@@YAIPAVnsIPresShell@@PAPAVnsIFrame@@@Z ; 1080
?CreatePlaceholderFrameFor@nsCSSFrameConstructor@@IAEIPAVnsIPresShell@@PAVnsIPresContext@@PAVnsIFrameManager@@PAVnsIContent@@PAVnsIFrame@@PAVnsIStyleContext@@4PAPAV6@@Z ; 1080
??_EnsPlaceholderFrame@@UAEPAXI@Z ; 1080
?AddChild@nsAbsoluteItems@@QAEXPAVnsIFrame@@@Z ; 1080
?GetRoundedBorders@RoundedRect@@QAEXAAVQBCurve@@000@Z ; 1076
?Set@RoundedRect@@QAEXHHHHQAFF@Z ; 1076
??1RectArea@@UAE@XZ ; 1072
??_ERectArea@@UAEPAXI@Z ; 1072
?PrepareStyleChangedReflow@nsBlockFrame@@IAEIAAVnsBlockReflowState@@@Z ; 1063
?UpdateBulletPosition@nsBlockFrame@@IAEIAAVnsBlockReflowState@@@Z ; 1063
?AttributeChanged@nsTextBoxFrame@@UAGIPAVnsIPresContext@@PAVnsIContent@@HPAVnsIAtom@@H@Z ; 1056
?GetFrameForPoint@nsComboboxControlFrame@@UAGIPAVnsIPresContext@@ABUnsPoint@@W4nsFramePaintLayer@@PAPAVnsIFrame@@@Z ; 1048
?DoLayout@nsSliderFrame@@UAGIAAVnsBoxLayoutState@@@Z ; 1048
?GetTextControlFrameState@nsGfxTextControlFrame2@@QAEXAAVnsAString@@@Z ; 1047
?GetOtherMonuments@nsMonumentLayout@@UAGIPAVnsIBox@@PAPAVnsBoxSizeList@@@Z ; 1043
?GetOtherMonumentsAt@nsGridLayout@@UAGIPAVnsIBox@@HPAPAVnsBoxSizeList@@PAVnsMonumentLayout@@@Z ; 1043
?GetMonumentsAt@nsMonumentLayout@@UAGIPAVnsIBox@@HPAPAVnsBoxSizeList@@@Z ; 1043
?GetWrapPropertyEnum@nsFormControlHelper@@SAIPAVnsIContent@@AAW4nsHTMLTextWrap@1@@Z ; 1040
?GetWrapProperty@nsFormControlHelper@@SAIPAVnsIContent@@AAVnsString@@@Z ; 1040
?CalculateChildTotalSize@nsScrollFrame@@AAEIPAVnsIFrame@@AAUnsHTMLReflowMetrics@@@Z ; 1028
?SetVisibleArea@nsPresContext@@UAGIABUnsRect@@@Z ; 1025
?Paint@nsHTMLFrameOuterFrame@@UAGIPAVnsIPresContext@@AAVnsIRenderingContext@@ABUnsRect@@W4nsFramePaintLayer@@@Z ; 1020
?UpdateAccessTitle@nsTextBoxFrame@@IAEXXZ ; 1018
??0nsFloaterCache@@QAE@XZ ; 1014
?ComputeExtraJustificationSpacing@nsTextFrame@@QAEXAAVnsIRenderingContext@@AAUTextStyle@1@PAGHH@Z ; 1008
?SetVisibility@nsHTMLFramesetBorderFrame@@QAEXH@Z ; 1008
?GetButtonRect@nsButtonFrameRenderer@@UAEXABUnsRect@@AAU2@@Z ; 1006
?InterruptNotification@nsTableFrame@@IAEXPAVnsIPresContext@@H@Z ; 1002
?FirstChild@nsPopupSetFrame@@UBGIPAVnsIPresContext@@PAVnsIAtom@@PAPAVnsIFrame@@@Z ; 994
??2FrameManager@@SAPAXI@Z ; 990
?QueryInterface@nsCSSFrameConstructor@@UAGIABUnsID@@PAPAX@Z ; 990
?GetInstance@nsRepeatService@@SAPAV1@XZ ; 985
??_EnsSupportsHashtable@@UAEPAXI@Z ; 980
?Stop@nsRepeatService@@QAEXXZ ; 980
?SetupDrawingFrameAndOffset@nsCaret@@IAEHXZ ; 975
?GetRootFrame@PresShell@@UBGIPAPAVnsIFrame@@@Z ; 973
?GetScrollingParentView@nsScrollBoxFrame@@MAEIPAVnsIPresContext@@PAVnsIFrame@@PAPAVnsIView@@@Z ; 971
?SetParentBox@nsBoxToBlockAdaptor@@UAGIPAVnsIBox@@@Z ; 963
?Recycle@nsBoxToBlockAdaptor@@UAGIPAVnsIPresShell@@@Z ; 963
??1nsBoxToBlockAdaptor@@UAE@XZ ; 963
??0nsBoxToBlockAdaptor@@QAE@PAVnsIPresShell@@PAVnsIFrame@@@Z ; 963
??_GnsBoxToBlockAdaptor@@UAEPAXI@Z ; 963
?Destroy@nsAutoRepeatBoxFrame@@UAGIPAVnsIPresContext@@@Z ; 956
?GetBoxSize@nsBoxSizeListImpl@@UAE?AVnsBoxSize@@AAVnsBoxLayoutState@@H@Z ; 954
?CreateViewForFrame@nsBoxFrame@@SAIPAVnsIPresContext@@PAVnsIFrame@@PAVnsIStyleContext@@H@Z ; 954
??1PropertyList@FrameManager@@QAE@XZ ; 948
?RemoveAllProperties@PropertyList@FrameManager@@QAEXPAVnsIPresContext@@@Z ; 948
??0PropertyList@FrameManager@@QAE@PAVnsIAtom@@P6AXPAVnsIPresContext@@PAVnsIFrame@@0PAX@ZPAVNodeArena@nsDST@@@Z ; 948
?GetPointFromOffset@nsTextFrame@@UAGIPAVnsIPresContext@@PAVnsIRenderingContext@@HPAUnsPoint@@@Z ; 943
?AttributeChanged@nsImageBoxFrame@@UAGIPAVnsIPresContext@@PAVnsIContent@@HPAVnsIAtom@@H@Z ; 942
??_EnsDeckFrame@@UAEPAXI@Z ; 938
??0nsScrollbarButtonFrame@@QAE@PAVnsIPresShell@@@Z ; 934
?NS_NewScrollbarButtonFrame@@YAIPAVnsIPresShell@@PAPAVnsIFrame@@@Z ; 934
?StopBlinking@nsCaret@@IAEIXZ ; 930
?StartBlinking@nsCaret@@IAEIXZ ; 930
?PrimeTimer@nsCaret@@IAEIXZ ; 930
?IsPositioned@nsStylePosition@@QBEHXZ ; 920
?GetFont@nsGfxTextControlFrame2@@UAGIPAVnsIPresContext@@AAPBUnsFont@@@Z ; 912
?GetLookAndFeelMetric@nsBoxObject@@UAGIPBGPAPAG@Z ; 910
?Destroy@nsMenuPopupFrame@@UAGIPAVnsIPresContext@@@Z ; 908
?Reflow@nsComboboxControlFrame@@UAGIPAVnsIPresContext@@AAUnsHTMLReflowMetrics@@ABUnsHTMLReflowState@@AAI@Z ; 906
?CreateScrollingViewWidget@nsScrollBoxFrame@@MAEIPAVnsIView@@PBUnsStylePosition@@@Z ; 900
??_EnsTreeScrollPortFrame@@UAEPAXI@Z ; 900
?SetUpScrolledFrame@nsScrollBoxFrame@@MAEXPAVnsIPresContext@@@Z ; 900
?Init@nsScrollBoxFrame@@UAGIPAVnsIPresContext@@PAVnsIContent@@PAVnsIFrame@@PAVnsIStyleContext@@2@Z ; 900
??0nsScrollBoxFrame@@IAE@PAVnsIPresShell@@@Z ; 900
?CreateScrollingView@nsScrollBoxFrame@@AAEIPAVnsIPresContext@@@Z ; 900
?SetInitialChildList@nsScrollBoxFrame@@UAGIPAVnsIPresContext@@PAVnsIAtom@@PAVnsIFrame@@@Z ; 900
?RemoveNewlines@nsGfxTextControlFrame2@@IAEXAAVnsString@@@Z ; 892
?Init@nsGfxScrollFrame@@UAGIPAVnsIPresContext@@PAVnsIContent@@PAVnsIFrame@@PAVnsIStyleContext@@2@Z ; 889
?SetInitialChildList@nsGfxScrollFrame@@UAGIPAVnsIPresContext@@PAVnsIAtom@@PAVnsIFrame@@@Z ; 889
?BuildGfxScrollFrame@nsCSSFrameConstructor@@IAEIPAVnsIPresShell@@PAVnsIPresContext@@AAVnsFrameConstructorState@@PAVnsIContent@@PAVnsIDocument@@PAVnsIFrame@@PAVnsIStyleContext@@HAAPAV7@AAUnsFrameItems@@5@Z ; 889
??0nsScrollPortFrame@@IAE@PAVnsIPresShell@@@Z ; 889
??_EnsGfxScrollFrameInner@@UAEPAXI@Z ; 889
??1nsGfxScrollFrame@@UAE@XZ ; 889
??0nsGfxScrollFrameInner@@QAE@PAVnsGfxScrollFrame@@@Z ; 889
?NS_NewGfxScrollFrame@@YAIPAVnsIPresShell@@PAPAVnsIFrame@@PAVnsIDocument@@H@Z ; 889
??1nsGfxScrollFrameInner@@UAE@XZ ; 889
??_GnsGfxScrollFrame@@UAEPAXI@Z ; 889
??0nsGfxScrollFrame@@IAE@PAVnsIPresShell@@PAVnsIDocument@@H@Z ; 889
?CreateAnonymousContent@nsGfxScrollFrame@@UAGIPAVnsIPresContext@@AAVnsISupportsArray@@@Z ; 889
?BeginBuildingScrollFrame@nsCSSFrameConstructor@@IAEIPAVnsIPresShell@@PAVnsIPresContext@@AAVnsFrameConstructorState@@PAVnsIContent@@PAVnsIStyleContext@@PAVnsIFrame@@PAVnsIAtom@@PAVnsIDocument@@HAAPAV7@AAV?$nsCOMPtr@VnsIStyleContext@@@@85@Z ; 889
?NeedsClipWidget@nsScrollPortFrame@@MAEHXZ ; 889
?FinishBuildingScrollFrame@nsCSSFrameConstructor@@IAEIPAVnsIPresContext@@AAVnsFrameConstructorState@@PAVnsIContent@@PAVnsIFrame@@3PAVnsIStyleContext@@@Z ; 889
?NS_NewScrollPortFrame@@YAIPAVnsIPresShell@@PAPAVnsIFrame@@@Z ; 882
?GetButtonInnerFocusMargin@nsButtonFrameRenderer@@UAE?AUnsMargin@@XZ ; 876
?DisplayAltText@nsImageFrame@@IAEXPAVnsIPresContext@@AAVnsIRenderingContext@@ABVnsString@@ABUnsRect@@@Z ; 873
?Stop@nsPresContext@@UAGIH@Z ; 871
?Reflow@SpacerFrame@@UAGIPAVnsIPresContext@@AAUnsHTMLReflowMetrics@@ABUnsHTMLReflowState@@AAI@Z ; 870
?GetType@SpacerFrame@@QAEEXZ ; 870
?SetChildFrameSize@nsComboboxControlFrame@@IAEXPAVnsIFrame@@HH@Z ; 864
?SetSuggestedSize@nsGfxButtonControlFrame@@UAGIHH@Z ; 864
?DidDo@nsTextInputListener@@UAGIPAVnsITransactionManager@@PAVnsITransaction@@I@Z ; 863
?GetAscent@nsBoxLayout@@UAGIPAVnsIBox@@AAVnsBoxLayoutState@@AAH@Z ; 863
?Paint@nsComboboxControlFrame@@UAGIPAVnsIPresContext@@AAVnsIRenderingContext@@ABUnsRect@@W4nsFramePaintLayer@@@Z ; 861
?CanSetProperty@nsOutlinerSelection@@UAGIPBUnsID@@PBGPAPAD@Z ; 860
?MeasureString@nsImageFrame@@IAEXPBGHHAAIAAVnsIRenderingContext@@@Z ; 854
?RemoveFrame@FrameManager@@UAGIPAVnsIPresContext@@AAVnsIPresShell@@PAVnsIFrame@@PAVnsIAtom@@2@Z ; 848
?ReparentFrameView@nsHTMLContainerFrame@@SAIPAVnsIPresContext@@PAVnsIFrame@@11@Z ; 840
?RemoveFirstChild@nsFrameList@@QAEHXZ ; 840
?AssignPctColumnWidths@BasicTableLayoutStrategy@@IAEHABUnsHTMLReflowState@@HHM@Z ; 834
?AreAllKidsInline@nsCSSFrameConstructor@@IAEHPAVnsIFrame@@@Z ; 831
?GetDefaultCheckState@nsFormControlFrame@@IAEIPAH@Z ; 831
?isDraggingThumb@nsSliderFrame@@AAEHPAVnsIPresContext@@@Z ; 811
?RemoveFrame@nsBlockFrame@@UAGIPAVnsIPresContext@@AAVnsIPresShell@@PAVnsIAtom@@PAVnsIFrame@@@Z ; 807
?ContentRemoved@PresShell@@UAGIPAVnsIDocument@@PAVnsIContent@@1H@Z ; 797
?InsertFrames@FrameManager@@UAGIPAVnsIPresContext@@AAVnsIPresShell@@PAVnsIFrame@@PAVnsIAtom@@22@Z ; 796
?GetType@nsFormControlFrame@@UBGIPAH@Z ; 795
?Reflow@nsScrollFrame@@UAGIPAVnsIPresContext@@AAUnsHTMLReflowMetrics@@ABUnsHTMLReflowState@@AAI@Z ; 785
?GetScrollbarSizes@nsScrollFrame@@UBGIPAVnsIPresContext@@PAH1@Z ; 785
?CalculateScrollAreaSize@nsScrollFrame@@AAEIPAVnsIPresContext@@ABUnsHTMLReflowState@@AAUnsMargin@@HHPAUnsSize@@PAH@Z ; 785
?AppendFrames@nsInlineFrame@@UAGIPAVnsIPresContext@@AAVnsIPresShell@@PAVnsIAtom@@PAVnsIFrame@@@Z ; 781
?GetType@nsComboboxControlFrame@@UBGIPAH@Z ; 780
?SendInterruptNotificationTo@PresShell@@UAGIPAVnsIFrame@@W4InterruptType@nsIPresShell@@@Z ; 776
??0nsHTMLReflowMetrics@@QAE@ABU0@@Z ; 774
?GetTextSize@nsFormControlHelper@@SAHPAVnsIPresContext@@PAVnsIFormControlFrame@@ABVnsString@@AAUnsSize@@PAVnsIRenderingContext@@@Z ; 774
?DoNavQuirksReflow@nsGfxButtonControlFrame@@MAGIPAVnsIPresContext@@AAUnsHTMLReflowMetrics@@ABUnsHTMLReflowState@@AAI@Z ; 774
?GetScreenHeight@nsFormControlFrame@@SAIPAVnsIPresContext@@AAH@Z ; 770
?GetProperty@nsGfxTextControlFrame2@@UAGIPAVnsIAtom@@AAVnsAString@@@Z ; 767
?DidReflow@nsHTMLFrameInnerFrame@@UAGIPAVnsIPresContext@@H@Z ; 766
?AttributeChanged@nsMenuFrame@@MAGIPAVnsIPresContext@@PAVnsIContent@@HPAVnsIAtom@@H@Z ; 757
??HnsMargin@@QBE?AU0@ABU0@@Z ; 746
?HandleEvent@nsButtonBoxFrame@@UAGIPAVnsIPresContext@@PAUnsGUIEvent@@PAW4nsEventStatus@@@Z ; 742
??1nsPresState@@UAE@XZ ; 739
??0nsPresState@@QAE@XZ ; 739
?NS_NewPresState@@YAIPAPAVnsIPresState@@@Z ; 739
??_EnsPresState@@UAEPAXI@Z ; 739
?DeleteChildsNextInFlow@nsBlockFrame@@UAEXPAVnsIPresContext@@PAVnsIFrame@@@Z ; 737
?AddState@nsLayoutHistoryState@@UAGIIPAVnsIPresState@@W4StateType@nsIStatefulFrame@@@Z ; 732
?Clone@nsVoidKey@@UBEPAVnsHashKey@@XZ ; 732
?NotifySelectionChanged@nsCaret@@UAGIPAVnsIDOMDocument@@PAVnsISelection@@F@Z ; 723
?UpdateAccessIndex@nsTextBoxFrame@@IAEXXZ ; 719
?CalculateTitleForWidth@nsTextBoxFrame@@MAEXPAVnsIPresContext@@AAVnsIRenderingContext@@H@Z ; 719
?GetDisplaySelection@nsTextInputSelectionImpl@@UAGIPAF@Z ; 711
?Reflow@nsListControlFrame@@UAGIPAVnsIPresContext@@AAUnsHTMLReflowMetrics@@ABUnsHTMLReflowState@@AAI@Z ; 705
?DidReflow@nsListControlFrame@@UAGIPAVnsIPresContext@@H@Z ; 705
?DidReflow@nsScrollFrame@@UAGIPAVnsIPresContext@@H@Z ; 705
?AdjustSiblingsAfterReflow@nsTableRowGroupFrame@@IAEIPAVnsIPresContext@@AAUnsRowGroupReflowState@@PAVnsIFrame@@H@Z ; 705
?InsertFrames@nsBlockFrame@@UAGIPAVnsIPresContext@@AAVnsIPresShell@@PAVnsIAtom@@PAVnsIFrame@@3@Z ; 705
??0nsTextBoxFrame@@IAE@PAVnsIPresShell@@@Z ; 704
?NS_NewTextBoxFrame@@YAIPAVnsIPresShell@@PAPAVnsIFrame@@@Z ; 704
?Init@nsTextBoxFrame@@UAGIPAVnsIPresContext@@PAVnsIContent@@PAVnsIFrame@@PAVnsIStyleContext@@2@Z ; 704
??1nsTextBoxFrame@@UAE@XZ ; 704
?GetVisibleArea@nsPresContext@@UAGIAAUnsRect@@@Z ; 704
??_EnsTextBoxFrame@@UAEPAXI@Z ; 704
?Release@nsOutlinerImageListener@@UAGKXZ ; 703
??1FrameArena@@QAE@XZ ; 698
?KillResizeEventTimer@PresShell@@AAEXXZ ; 697
?NotifyReflowObservers@PresShell@@IAEIPBD@Z ; 696
?CancelInterruptNotificationTo@PresShell@@UAGIPAVnsIFrame@@W4InterruptType@nsIPresShell@@@Z ; 689
?NS_NewStackLayout@@YAIPAVnsIPresShell@@AAV?$nsCOMPtr@VnsIBoxLayout@@@@@Z ; 687
?Clone@nsDFAState@@UBEPAVnsHashKey@@XZ ; 681
?GetCaretVisible@nsCaret@@UAGIPAH@Z ; 680
?GetEventTargetFrame@PresShell@@UAGIPAPAVnsIFrame@@@Z ; 679
?QueryInterface@nsGfxCheckboxControlFrame@@UAGIABUnsID@@PAPAX@Z ; 678
??0nsStackFrame@@IAE@PAVnsIPresShell@@PAVnsIBoxLayout@@@Z ; 675
?GetContentAndOffsetsForSelection@nsTextFrame@@IAEIPAVnsIPresContext@@PAPAVnsIContent@@PAH2@Z ; 670
?AttributeChanged@nsImageMap@@UAGIPAVnsIDocument@@PAVnsIContent@@HPAVnsIAtom@@H@Z ; 669
?BuildScrollFrame@nsCSSFrameConstructor@@IAEIPAVnsIPresShell@@PAVnsIPresContext@@AAVnsFrameConstructorState@@PAVnsIContent@@PAVnsIStyleContext@@PAVnsIFrame@@5AAPAV7@AAPAV6@5@Z ; 668
?GetScrollableView@nsListControlFrame@@IAEXAAPAVnsIScrollableView@@@Z ; 667
?ScrollToFrame@nsListControlFrame@@IAEIPAVnsIContent@@@Z ; 667
?GetFontPreferences@nsPresContext@@IAEXXZ ; 663
?SetLinkHandler@nsPresContext@@UAGIPAVnsILinkHandler@@@Z ; 662
?SetContainer@nsPresContext@@UAGIPAVnsISupports@@@Z ; 661
?DisplaySelected@nsListControlFrame@@IAEXPAVnsIContent@@@Z ; 661
?QueryInterface@nsLayoutDLF@@UAGIABUnsID@@PAPAX@Z ; 660
?ReleaseAnonymousContent@PresShell@@UAGIXZ ; 660
?SetShell@nsPresContext@@UAGIPAVnsIPresShell@@@Z ; 660
?SetCaretReadOnly@nsCaret@@UAGIH@Z ; 659
?BeginObservingDocument@PresShell@@UAGIXZ ; 659
?CreateFrameFor@nsComboboxControlFrame@@UAGIPAVnsIPresContext@@PAVnsIContent@@PAPAVnsIFrame@@@Z ; 658
?SetInitialChildList@nsComboboxControlFrame@@UAGIPAVnsIPresContext@@PAVnsIAtom@@PAVnsIFrame@@@Z ; 658
?NS_NewSpringFrame@@YAIPAVnsIPresShell@@PAPAVnsIFrame@@@Z ; 658
??_EnsSpringFrame@@UAEPAXI@Z ; 658
?CreateAnonymousContent@nsGfxTextControlFrame2@@UAGIPAVnsIPresContext@@AAVnsISupportsArray@@@Z ; 657
??0nsGfxTextControlFrame2@@QAE@PAVnsIPresShell@@@Z ; 657
??1nsGfxTextControlFrame2@@UAE@XZ ; 657
??_EnsTextInputSelectionImpl@@UAEPAXI@Z ; 657
??0nsTextInputSelectionImpl@@QAE@PAVnsIFrameSelection@@PAVnsIPresShell@@PAVnsIContent@@@Z ; 657
?GetMaxLength@nsGfxTextControlFrame2@@MAGIPAH@Z ; 657
??_EnsGfxTextControlFrame2@@UAEPAXI@Z ; 657
??0nsTextInputListener@@QAE@XZ ; 657
?GetMonumentsAt@nsGridLayout@@UAGIPAVnsIBox@@HPAPAVnsBoxSizeList@@@Z ; 657
?IsPasswordTextControl@nsGfxTextControlFrame2@@MBEHXZ ; 657
??1nsTextInputListener@@UAE@XZ ; 657
?Destroy@nsGfxTextControlFrame2@@UAGIPAVnsIPresContext@@@Z ; 657
?SetScrollableView@nsTextInputSelectionImpl@@UAGIPAVnsIScrollableView@@@Z ; 657
?SetCaretReadOnly@nsTextInputSelectionImpl@@UAGIH@Z ; 657
?SetInitialChildList@nsGfxTextControlFrame2@@UAGIPAVnsIPresContext@@PAVnsIAtom@@PAVnsIFrame@@@Z ; 657
?NS_NewGfxTextControlFrame@@YAIPAVnsIPresShell@@PAPAVnsIFrame@@@Z ; 657
?ConstructTextControlFrame@nsCSSFrameConstructor@@IAEIPAVnsIPresShell@@PAVnsIPresContext@@AAPAVnsIFrame@@PAVnsIContent@@@Z ; 657
??_GnsTextInputListener@@UAEPAXI@Z ; 657
??1nsTextInputSelectionImpl@@UAE@XZ ; 657
?QueryInterface@nsFrameImageLoader@@UAGIABUnsID@@PAPAX@Z ; 652
?ClearPreferenceStyleRules@PresShell@@IAEIXZ ; 651
?GetMinSize@nsTempleLayout@@UAGIPAVnsIBox@@AAVnsBoxLayoutState@@AAUnsSize@@@Z ; 646
?GetText@nsGfxTextControlFrame2@@UAGIPAVnsString@@H@Z ; 645
?GetSelectedItem@nsListControlFrame@@UAGIAAVnsString@@@Z ; 643
?CalculateSizeNavQuirks@nsGfxTextControlFrame2@@IAEHPAVnsIPresContext@@PAVnsIRenderingContext@@PAVnsIFormControlFrame@@AAUnsInputDimensionSpec@@AAUnsSize@@4AAHAAUnsMargin@@6H@Z ; 641
?ReflowNavQuirks@nsGfxTextControlFrame2@@MAGIPAVnsIPresContext@@AAUnsSize@@ABUnsHTMLReflowState@@AAIAAUnsMargin@@4@Z ; 641
?SaveState@nsGfxTextControlFrame2@@MAGIPAVnsIPresContext@@PAPAVnsIPresState@@@Z ; 640
?CaptureHistoryState@PresShell@@UAGIPAPAVnsILayoutHistoryState@@H@Z ; 638
?GetFrameForPoint@nsSplitterFrame@@UAGIPAVnsIPresContext@@ABUnsPoint@@W4nsFramePaintLayer@@PAPAVnsIFrame@@@Z ; 635
?SyncViewWithFrame@nsListControlFrame@@UAGIPAVnsIPresContext@@@Z ; 628
?PositionDropdown@nsComboboxControlFrame@@QAEIPAVnsIPresContext@@HUnsRect@@1@Z ; 628
?GetAbsoluteFramePosition@nsFormControlFrame@@SAIPAVnsIPresContext@@PAVnsIFrame@@AAUnsRect@@2@Z ; 628
?AbsolutelyPositionDropDown@nsComboboxControlFrame@@UAGIXZ ; 628
?ReflowComboChildFrame@nsComboboxControlFrame@@IAEIPAVnsIFrame@@PAVnsIPresContext@@AAUnsHTMLReflowMetrics@@ABUnsHTMLReflowState@@AAIHH@Z ; 628
?GetViewOffset@nsListControlFrame@@IAEXPAVnsIViewManager@@PAVnsIView@@AAUnsPoint@@@Z ; 628
??1nsFormFrame@@UAE@XZ ; 625
??_GnsFormFrame@@UAEPAXI@Z ; 625
?NS_NewFormFrame@@YAIPAVnsIPresShell@@PAPAVnsIFrame@@I@Z ; 625
??0nsFormFrame@@QAE@XZ ; 625
?RemoveRadioGroups@nsFormFrame@@IAEXXZ ; 625
?Paint@HRuleFrame@@UAGIPAVnsIPresContext@@AAVnsIRenderingContext@@ABUnsRect@@W4nsFramePaintLayer@@@Z ; 621
?GetSelectedIndexFromDOM@nsListControlFrame@@MAGIPAH@Z ; 618
??0HRuleFrame@@QAE@XZ ; 614
?NS_NewHRFrame@@YAIPAVnsIPresShell@@PAPAVnsIFrame@@@Z ; 614
??_GHRuleFrame@@UAEPAXI@Z ; 614
?DesecrateMonuments@nsTempleLayout@@UAGIPAVnsIBox@@AAVnsBoxLayoutState@@@Z ; 614
?IsOccupiedBy@BandRect@nsSpaceManager@@QBEHPBVnsIFrame@@@Z ; 613
?SetStateProperty@nsPresState@@UAGIABVnsAString@@0@Z ; 611
?GetInputElementValue@nsFormControlHelper@@SAIPAVnsIContent@@PAVnsString@@H@Z ; 609
?IsReset@nsGfxButtonControlFrame@@MAEHH@Z ; 608
?IsSubmit@nsGfxButtonControlFrame@@MAEHH@Z ; 606
?IsBrowse@nsGfxButtonControlFrame@@MAEHH@Z ; 606
?GetDefaultLabel@nsGfxButtonControlFrame@@MAGIAAVnsString@@@Z ; 606
?NS_NewSpacerFrame@@YAIPAVnsIPresShell@@PAPAVnsIFrame@@@Z ; 605
??_ESpacerFrame@@MAEPAXI@Z ; 605
??0SpacerFrame@@IAE@XZ ; 605
??1SpacerFrame@@MAE@XZ ; 605
?NS_NewButtonBoxFrame@@YAIPAVnsIPresShell@@PAPAVnsIFrame@@@Z ; 604
?CurrentPositionChanged@nsSliderFrame@@UAEIPAVnsIPresContext@@@Z ; 597
?QueryInterface@nsMenuPopupFrame@@UAGIABUnsID@@PAPAX@Z ; 593
?PaintRow@nsOutlinerBodyFrame@@UAGIHABUnsRect@@PAVnsIPresContext@@AAVnsIRenderingContext@@0W4nsFramePaintLayer@@@Z ; 584
?PaintColumn@nsOutlinerBodyFrame@@UAGIPAVnsOutlinerColumn@@ABUnsRect@@PAVnsIPresContext@@AAVnsIRenderingContext@@1W4nsFramePaintLayer@@@Z ; 578
?IsDone@DrawSelectionIterator@@QAEHXZ ; 575
?PaintTwisty@nsOutlinerBodyFrame@@UAGIHPAVnsOutlinerColumn@@ABUnsRect@@PAVnsIPresContext@@AAVnsIRenderingContext@@1W4nsFramePaintLayer@@AAH5@Z ; 558
?SetFormFrame@nsComboboxControlFrame@@UAEXPAVnsFormFrame@@@Z ; 555
?PaintRoundedBackground@nsCSSRendering@@KAXPAVnsIPresContext@@AAVnsIRenderingContext@@PAVnsIFrame@@ABUnsRect@@3ABUnsStyleColor@@HHQAF@Z ; 549
?EnumTree@nsDST@@ABEXPAVLeafNode@1@AAVnsDSTNodeFunctor@@@Z ; 538
?Enumerate@nsDST@@QBEIAAVnsDSTNodeFunctor@@@Z ; 538
?Layout@nsTreeLayout@@UAGIPAVnsIBox@@AAVnsBoxLayoutState@@@Z ; 536
?LayoutInternal@nsTreeLayout@@EAGIPAVnsIBox@@AAVnsBoxLayoutState@@@Z ; 536
?NotifyFrames@nsFrameImageLoader@@IAEXH@Z ; 532
?GetScrollbarMediator@nsScrollbarFrame@@UAGIPAPAVnsIScrollbarMediator@@@Z ; 531
?GetDesiredSize@nsFormControlFrame@@MAEXPAVnsIPresContext@@ABUnsHTMLReflowState@@AAUnsHTMLReflowMetrics@@AAUnsSize@@@Z ; 527
?Reflow@nsLeafFrame@@UAGIPAVnsIPresContext@@AAUnsHTMLReflowMetrics@@ABUnsHTMLReflowState@@AAI@Z ; 527
?ColIsSpannedInto@nsTableCellMap@@QAEHH@Z ; 527
?PaintRoundedBorder@nsCSSRendering@@KAXPAVnsIPresContext@@AAVnsIRenderingContext@@PAVnsIFrame@@ABUnsRect@@3PBUnsStyleBorder@@PBUnsStyleOutline@@PAVnsIStyleContext@@HQAFPAU5@H@Z ; 527
?Reflow@nsFormControlFrame@@UAGIPAVnsIPresContext@@AAUnsHTMLReflowMetrics@@ABUnsHTMLReflowState@@AAI@Z ; 527
?GetDesiredSize@nsFormControlFrame@@MAEXPAVnsIPresContext@@ABUnsHTMLReflowState@@AAUnsHTMLReflowMetrics@@@Z ; 527
?CalcInsetCurves@RoundedRect@@QAEXAAVQBCurve@@000AAUnsMargin@@@Z ; 527
?ColIsSpannedInto@nsTableFrame@@QAEHH@Z ; 527
?DrawDashedSides@nsCSSRendering@@SAXHAAVnsIRenderingContext@@ABUnsRect@@PBUnsStyleBorder@@PBUnsStyleOutline@@H11HPAU3@@Z ; 526
?HandleEvent@nsMenuFrame@@UAGIPAVnsIPresContext@@PAUnsGUIEvent@@PAW4nsEventStatus@@@Z ; 524
?NotifySelectionChanged@nsTextInputListener@@UAGIPAVnsIDOMDocument@@PAVnsISelection@@F@Z ; 522
?ShouldClearFrame@nsBlockBandData@@IAEHPAVnsIFrame@@E@Z ; 522
?QueryInterface@nsSliderMediator@@UAGIABUnsID@@PAPAX@Z ; 521
?AddRectToBand@nsSpaceManager@@IAEXPAUBandRect@1@0@Z ; 518
?GetNextRowSibling@nsTableRowGroupFrame@@IAEXPAPAVnsIFrame@@@Z ; 517
?Reflow@nsTreeIndentationFrame@@UAGIPAVnsIPresContext@@AAUnsHTMLReflowMetrics@@ABUnsHTMLReflowState@@AAI@Z ; 513
?ComputeRelativeOffsets@nsHTMLReflowState@@IAEXPBU1@HH@Z ; 510
?Get@FrameHashTable@@QAEPAXPAX@Z ; 504
?GetPlaceholderFrameFor@FrameManager@@UBGIPAVnsIFrame@@PAPAV2@@Z ; 504
?GetButtonInnerFocusRect@nsButtonFrameRenderer@@UAEXABUnsRect@@AAU2@@Z ; 503
?GetButtonBorderAndPadding@nsButtonFrameRenderer@@UAE?AUnsMargin@@XZ ; 503
?GetFrameType@nsHTMLFrameInnerFrame@@UBGIPAPAVnsIAtom@@@Z ; 502
?GetFrameForPoint@nsSliderFrame@@UAGIPAVnsIPresContext@@ABUnsPoint@@W4nsFramePaintLayer@@PAPAVnsIFrame@@@Z ; 500
?NeedsRecalc@nsXULTreeGroupFrame@@UAGIXZ ; 500
?FreeAreas@nsImageMap@@IAEXXZ ; 493
??_EnsAutoRepeatBoxFrame@@UAEPAXI@Z ; 489
?Init@nsBoxObject@@UAGIPAVnsIContent@@PAVnsIPresShell@@@Z ; 488
?SetDocument@nsBoxObject@@UAGIPAVnsIDocument@@@Z ; 488
??0nsBoxObject@@QAE@XZ ; 488
??1nsBoxObject@@UAE@XZ ; 487
?GetAvailableHeight@nsXULTreeOuterGroupFrame@@UAEHXZ ; 483
?AddRow@nsOutlinerImageListener@@UAGIH@Z ; 483
?QueryInterface@nsScrollFrame@@UAGIABUnsID@@PAPAX@Z ; 481
?GetDebugPref@nsBoxFrameInner@@QAEXPAVnsIPresContext@@@Z ; 476
?PopulateBoxSizes@nsObeliskLayout@@MAEXPAVnsIBox@@AAVnsBoxLayoutState@@AAPAVnsBoxSize@@AAPAVnsComputedBoxSize@@AAH44@Z ; 475
?ComputeChildSizes@nsObeliskLayout@@MAEXPAVnsIBox@@AAVnsBoxLayoutState@@AAHPAVnsBoxSize@@AAPAVnsComputedBoxSize@@@Z ; 475
?AddListener@nsSliderFrame@@AAEXXZ ; 472
?NS_NewBoxObject@@YAIPAPAVnsIBoxObject@@@Z ; 470
??_EnsBoxObject@@UAEPAXI@Z ; 469
?StopImageLoad@nsFrameImageLoader@@UAGIH@Z ; 469
?Destroy@nsSliderFrame@@UAGIPAVnsIPresContext@@@Z ; 467
??0nsScrollbarFrame@@QAE@PAVnsIPresShell@@@Z ; 467
?GetMaxSize@nsTreeLayout@@UAGIPAVnsIBox@@AAVnsBoxLayoutState@@AAUnsSize@@@Z ; 467
??_GnsSliderFrame@@UAEPAXI@Z ; 467
?Init@nsSliderFrame@@UAGIPAVnsIPresContext@@PAVnsIContent@@PAVnsIFrame@@PAVnsIStyleContext@@2@Z ; 467
??0nsSliderFrame@@QAE@PAVnsIPresShell@@@Z ; 467
?GetMinSize@nsTreeLayout@@UAGIPAVnsIBox@@AAVnsBoxLayoutState@@AAUnsSize@@@Z ; 467
?Init@nsScrollbarFrame@@UAGIPAVnsIPresContext@@PAVnsIContent@@PAVnsIFrame@@PAVnsIStyleContext@@2@Z ; 467
??_EnsSliderMediator@@UAEPAXI@Z ; 467
??1nsSliderFrame@@UAE@XZ ; 467
?GetPrefSize@nsTreeLayout@@UAGIPAVnsIBox@@AAVnsBoxLayoutState@@AAUnsSize@@@Z ; 467
?NS_NewScrollbarFrame@@YAIPAVnsIPresShell@@PAPAVnsIFrame@@@Z ; 467
?NS_NewSliderFrame@@YAIPAVnsIPresShell@@PAPAVnsIFrame@@@Z ; 467
?SetLayoutReason@nsBoxLayoutState@@UAEXW4eBoxLayoutReason@1@@Z ; 467
?SetInitialChildList@nsSliderFrame@@UAGIPAVnsIPresContext@@PAVnsIAtom@@PAVnsIFrame@@@Z ; 467
?CreateFrameFor@nsSplitterFrame@@UAGIPAVnsIPresContext@@PAVnsIContent@@PAPAVnsIFrame@@@Z ; 466
?SetFormFrame@nsFormControlFrame@@UAEXPAVnsFormFrame@@@Z ; 461
?ToggleSelected@nsListControlFrame@@IAEXH@Z ; 453
?SetProperty@nsListControlFrame@@UAGIPAVnsIPresContext@@PAVnsIAtom@@ABVnsAString@@@Z ; 453
?MakeSureSomethingIsSelected@nsComboboxControlFrame@@MAGIPAVnsIPresContext@@@Z ; 453
?GetSelectedIndex@nsListControlFrame@@UAGIPAH@Z ; 453
?CancelReflowCommand@PresShell@@UAGIPAVnsIFrame@@PAW4ReflowType@nsIReflowCommand@@@Z ; 449
?LookUpSelection@nsTextInputSelectionImpl@@UAGIPAVnsIContent@@HHPAPAUSelectionDetails@@H@Z ; 447
?SetPresShell@PresShellViewEventListener@@QAEIPAVnsIPresShell@@@Z ; 442
?SetNext@nsBoxSizeListNodeImpl@@UAEXAAVnsBoxLayoutState@@PAVnsBoxSizeList@@@Z ; 441
?PushAbsoluteContainingBlock@nsFrameConstructorState@@QAEXPAVnsIFrame@@AAVnsFrameConstructorSaveState@@@Z ; 439
??0CantRenderReplacedElementEvent@@QAE@PAVFrameManager@@PAVnsIFrame@@@Z ; 438
?CantRenderReplacedElement@PresShell@@UAGIPAVnsIPresContext@@PAVnsIFrame@@@Z ; 438
?CantRenderReplacedElement@FrameManager@@UAGIPAVnsIPresContext@@PAVnsIFrame@@@Z ; 438
?GetDefaultChecked@nsGfxRadioControlFrame@@UAEHXZ ; 438
?GetStateType@nsGfxRadioControlFrame@@UAGIPAVnsIPresContext@@PAW4StateType@nsIStatefulFrame@@@Z ; 438
?Paint@nsBulletFrame@@UAGIPAVnsIPresContext@@AAVnsIRenderingContext@@ABUnsRect@@W4nsFramePaintLayer@@@Z ; 438
?GetStateType@nsScrollFrame@@UAGIPAVnsIPresContext@@PAW4StateType@nsIStatefulFrame@@@Z ; 432
?ReflowCombobox@nsComboboxControlFrame@@IAEXPAVnsIPresContext@@ABUnsHTMLReflowState@@AAUnsHTMLReflowMetrics@@AAIPAVnsIFrame@@4AAHHABUnsMargin@@HH@Z ; 432
?SetLoadGroup@DummyLayoutRequest@@UAGIPAVnsILoadGroup@@@Z ; 429
??1DummyLayoutRequest@@MAE@XZ ; 429
?Create@DummyLayoutRequest@@SAIPAPAVnsIRequest@@PAVnsIPresShell@@@Z ; 429
?AddDummyLayoutRequest@PresShell@@IAEIXZ ; 429
??0DummyLayoutRequest@@IAE@PAVnsIPresShell@@@Z ; 429
?GetPlaceholderFrameFor@PresShell@@UBGIPAVnsIFrame@@PAPAV2@@Z ; 429
??_GDummyLayoutRequest@@MAEPAXI@Z ; 429
?GetStyle@nsFrame@@UBGIW4nsStyleStructID@@AAUnsStyleStruct@@@Z ; 425
?ReflowAbsoluteFrame@nsAbsoluteContainingBlock@@IAEIPAVnsIFrame@@PAVnsIPresContext@@ABUnsHTMLReflowState@@HH0W4nsReflowReason@@AAI@Z ; 425
?InitAbsoluteConstraints@nsHTMLReflowState@@IAEXPAVnsIPresContext@@PBU1@HH@Z ; 425
??_GnsLayoutHistoryState@@UAEPAXI@Z ; 420
??0nsLayoutHistoryState@@QAE@XZ ; 420
?NS_NewLayoutHistoryState@@YAIPAPAVnsILayoutHistoryState@@@Z ; 420
??1nsLayoutHistoryState@@UAE@XZ ; 420
?GetMaxSize@nsObeliskLayout@@UAGIPAVnsIBox@@AAVnsBoxLayoutState@@AAUnsSize@@@Z ; 418
?GetMinSize@nsObeliskLayout@@UAGIPAVnsIBox@@AAVnsBoxLayoutState@@AAUnsSize@@@Z ; 418
?GetPrefSize@nsObeliskLayout@@UAGIPAVnsIBox@@AAVnsBoxLayoutState@@AAUnsSize@@@Z ; 418
?SetReference@?$nsCWeakReference@VnsListControlFrame@@@@QAEXPAVnsCWeakReferent@@@Z ; 400
?Init@nsScrollFrame@@UAGIPAVnsIPresContext@@PAVnsIContent@@PAVnsIFrame@@PAVnsIStyleContext@@2@Z ; 400
??1nsListEventListener@@UAE@XZ ; 400
?NS_NewListEventListener@@YAIPAPAVnsIListEventListener@@@Z ; 400
??1nsListControlFrame@@MAE@XZ ; 400
?SetInitialChildList@nsListControlFrame@@UAGIPAVnsIPresContext@@PAVnsIAtom@@PAVnsIFrame@@@Z ; 400
?Init@nsListControlFrame@@UAGIPAVnsIPresContext@@PAVnsIContent@@PAVnsIFrame@@PAVnsIStyleContext@@2@Z ; 400
?ConstructSelectFrame@nsCSSFrameConstructor@@IAEIPAVnsIPresShell@@PAVnsIPresContext@@AAVnsFrameConstructorState@@PAVnsIContent@@PAVnsIFrame@@PAVnsIAtom@@PAVnsIStyleContext@@AAPAV6@AAHH8HAAUnsFrameItems@@@Z ; 400
?InitializeSelectFrame@nsCSSFrameConstructor@@IAEIPAVnsIPresShell@@PAVnsIPresContext@@AAVnsFrameConstructorState@@PAVnsIFrame@@3PAVnsIContent@@3PAVnsIStyleContext@@HHH@Z ; 400
??0nsListControlFrame@@IAE@XZ ; 400
?SetInitialChildList@nsScrollFrame@@UAGIPAVnsIPresContext@@PAVnsIAtom@@PAVnsIFrame@@@Z ; 400
??0nsScrollFrame@@IAE@XZ ; 400
?NS_NewSelectsAreaFrame@@YAIPAVnsIPresShell@@PAPAVnsIFrame@@I@Z ; 400
??0nsListEventListener@@IAE@XZ ; 400
??_GnsListEventListener@@UAEPAXI@Z ; 400
?Destroy@nsListControlFrame@@UAGIPAVnsIPresContext@@@Z ; 400
?CreateScrollingView@nsScrollFrame@@AAEIPAVnsIPresContext@@@Z ; 400
??_EnsListControlFrame@@MAEPAXI@Z ; 400
?CreateScrollingViewWidget@nsListControlFrame@@MAEIPAVnsIView@@PBUnsStylePosition@@@Z ; 400
?SaveStateInternal@nsListControlFrame@@UAGIPAVnsIPresContext@@PAPAVnsIPresState@@@Z ; 400
?SaveState@nsListControlFrame@@UAGIPAVnsIPresContext@@PAPAVnsIPresState@@@Z ; 400
?GetScrollingParentView@nsListControlFrame@@MAEIPAVnsIPresContext@@PAVnsIFrame@@PAPAVnsIView@@@Z ; 400
?SetFrame@nsListEventListener@@UAGIPAVnsListControlFrame@@@Z ; 400
?NS_NewListControlFrame@@YAIPAVnsIPresShell@@PAPAVnsIFrame@@@Z ; 400
?Paint@nsFormControlFrame@@UAGIPAVnsIPresContext@@AAVnsIRenderingContext@@ABUnsRect@@W4nsFramePaintLayer@@@Z ; 399
?GetCursor@nsTextFrame@@UAGIPAVnsIPresContext@@AAUnsPoint@@AAH@Z ; 398
?AppendDirtyReflowCommand@nsTableFrame@@SAIPAVnsIPresShell@@PAVnsIFrame@@@Z ; 396
?EnsureDifferentColors@@YAIII@Z ; 394
?CheckIfAllFramesHere@nsListControlFrame@@IAEHXZ ; 385
?Deselect@nsListControlFrame@@IAEIXZ ; 385
?AC_Decrease@@YAXHPAPAUnsColInfo@@HAAHM@Z ; 385
?Reset@nsListControlFrame@@UAEXPAVnsIPresContext@@@Z ; 385
?GetType@nsImageControlFrame@@UBGIPAH@Z ; 380
?GetBoolString@nsFormControlHelper@@SAXHAAVnsAString@@@Z ; 378
?GetButtonInnerFocusBorderAndPadding@nsButtonFrameRenderer@@UAE?AUnsMargin@@XZ ; 373
?Reflow@nsHTMLButtonControlFrame@@UAGIPAVnsIPresContext@@AAUnsHTMLReflowMetrics@@ABUnsHTMLReflowState@@AAI@Z ; 373
?GetAddedButtonBorderAndPadding@nsButtonFrameRenderer@@UAE?AUnsMargin@@XZ ; 373
?AddComputedBorderPaddingToDesiredSize@nsGfxButtonControlFrame@@MAGIAAUnsHTMLReflowMetrics@@ABUnsHTMLReflowState@@@Z ; 373
?SetCompatibilityMode@nsPresContext@@UAGIW4nsCompatibility@@@Z ; 373
?GetName@nsFormControlFrame@@UAGIPAVnsString@@@Z ; 372
?ScrollSelectionIntoView@nsTextInputSelectionImpl@@UAGIFF@Z ; 371
?GetNextObelisk@nsMonumentIterator@@UAEHPAPAVnsObeliskLayout@@H@Z ; 370
?NewMemoryArena@nsDST@@SAPAVNodeArena@1@I@Z ; 369
??0NodeArena@nsDST@@QAE@I@Z ; 369
?ResizeReflow@PresShell@@UAGIHH@Z ; 367
?CreateResizeEventTimer@PresShell@@AAEXXZ ; 367
?DoLayout@nsMenuFrame@@UAGIAAVnsBoxLayoutState@@@Z ; 366
?AddHorizontalScrollbar@nsGfxScrollFrameInner@@QAEHAAVnsBoxLayoutState@@AAUnsRect@@H@Z ; 365
?ResizeReflow@PresShell@@UAGIPAVnsIView@@HH@Z ; 364
?Clear@UndisplayedMap@@QAEXXZ ; 364
?ConstructDocElementFrame@nsCSSFrameConstructor@@IAEIPAVnsIPresShell@@PAVnsIPresContext@@AAVnsFrameConstructorState@@PAVnsIContent@@PAVnsIFrame@@PAVnsIStyleContext@@AAPAV6@@Z ; 364
?SetRowHeight@nsXULTreeOuterGroupFrame@@QAEXH@Z ; 363
??0nsHTMLReflowState@@QAE@PAVnsIPresContext@@PAVnsIFrame@@W4nsReflowReason@@PAVnsIRenderingContext@@ABUnsSize@@@Z ; 362
?ReflowFixedFrames@ViewportFrame@@IBEXPAVnsIPresContext@@ABUnsHTMLReflowState@@@Z ; 362
?CalculateFixedContainingBlockSize@ViewportFrame@@IBEXPAVnsIPresContext@@ABUnsHTMLReflowState@@AAH2@Z ; 362
?GetCurrentMenuItem@nsMenuPopupFrame@@UAGIPAPAVnsIMenuFrame@@@Z ; 359
?GetChildFrameContainingOffset@nsFrame@@UAGIHHPAHPAPAVnsIFrame@@@Z ; 354
?EndReflowBatching@PresShell@@UAGIH@Z ; 351
?BeginReflowBatching@PresShell@@UAGIXZ ; 351
?GetCanvasFrame@FrameManager@@UBGIPAVnsIPresContext@@PAPAVnsIFrame@@@Z ; 349
?GetRadioInfo@nsFormFrame@@QAEIPAVnsIFormControlFrame@@AAVnsString@@AAPAVnsRadioControlGroup@@@Z ; 348
?IsDroppedDown@nsComboboxControlFrame@@UAGIPAH@Z ; 345
?DestroyFrameInfo@nsSpaceManager@@IAEXPAUFrameInfo@1@@Z ; 344
?RemoveRegion@nsSpaceManager@@UAGIPAVnsIFrame@@@Z ; 344
?GetClosestViewForFrame@nsFrame@@UAEIPAVnsIPresContext@@PAVnsIFrame@@PAPAVnsIView@@@Z ; 340
?TranslateEventCoords@nsImageFrame@@IAEXPAVnsIPresContext@@ABUnsPoint@@AAU3@@Z ; 340
?Draw@nsImageMap@@QAEXPAVnsIPresContext@@AAVnsIRenderingContext@@@Z ; 339
?SetDisplaySelection@PresShell@@UAGIF@Z ; 339
?FireResizeEvent@PresShell@@AAEXXZ ; 337
?GetScrollbarSizes@nsGfxScrollFrame@@UBGIPAVnsIPresContext@@PAH1@Z ; 337
?sResizeEventCallback@PresShell@@CAXPAVnsITimer@@PAX@Z ; 337
?GetDisabled@nsFormFrame@@SAHPAVnsIFrame@@PAVnsIContent@@@Z ; 335
?SetPreferenceStyleRules@PresShell@@UAGIH@Z ; 333
?GetUserPreferences@nsPresContext@@IAEXXZ ; 333
??1PresShell@@MAE@XZ ; 330
?UpdateCharSet@nsPresContext@@IAEXPBG@Z ; 330
?DestroyPropertyList@FrameManager@@AAEXPAVnsIPresContext@@@Z ; 330
?NS_NewCaret@@YAIPAPAVnsICaret@@@Z ; 330
?Init@nsPresContext@@UAGIPAVnsIDeviceContext@@@Z ; 330
??1nsLayoutDLF@@UAE@XZ ; 330
??1nsCaret@@UAE@XZ ; 330
?Init@nsCSSFrameConstructor@@UAGIPAVnsIDocument@@@Z ; 330
??_GPresShell@@MAEPAXI@Z ; 330
??0nsCaret@@QAE@XZ ; 330
??_GnsCaret@@UAEPAXI@Z ; 330
?EndObservingDocument@PresShell@@UAGIXZ ; 330
?NS_NewGalleyContext@@YAIPAPAVnsIPresContext@@@Z ; 330
??0FrameArena@@QAE@I@Z ; 330
?Init@FrameManager@@UAGIPAVnsIPresShell@@PAVnsIStyleSet@@@Z ; 330
??1GalleyContext@@UAE@XZ ; 330
?Destroy@FrameManager@@UAGIXZ ; 330
?CreateInstance@nsLayoutDLF@@UAGIPBDPAVnsIChannel@@PAVnsILoadGroup@@0PAVnsISupports@@3PAPAVnsIStreamListener@@PAPAVnsIContentViewer@@@Z ; 330
??1nsCSSFrameConstructor@@UAE@XZ ; 330
??1FrameManager@@UAE@XZ ; 330
?QueryInterface@FrameManager@@UAGIABUnsID@@PAPAX@Z ; 330
??0GalleyContext@@QAE@XZ ; 330
?RevokePostedEvents@FrameManager@@AAEIXZ ; 330
??_EFrameManager@@UAEPAXI@Z ; 330
?NS_CreateCSSFrameConstructor@@YAIPAPAVnsICSSFrameConstructor@@@Z ; 330
??1nsPresContext@@MAE@XZ ; 330
??0FrameManager@@QAE@XZ ; 330
?Init@PresShell@@UAGIPAVnsIDocument@@PAVnsIPresContext@@PAVnsIViewManager@@PAVnsIStyleSet@@@Z ; 330
?NS_NewFrameManager@@YAIPAPAVnsIFrameManager@@@Z ; 330
?EndLoad@PresShell@@UAGIPAVnsIDocument@@@Z ; 330
??0PresShell@@QAE@XZ ; 330
??_GnsCSSFrameConstructor@@UAEPAXI@Z ; 330
?Init@nsCaret@@UAGIPAVnsIPresShell@@@Z ; 330
??0nsLayoutDLF@@QAE@XZ ; 330
??_EGalleyContext@@UAEPAXI@Z ; 330
??_EnsLayoutDLF@@UAEPAXI@Z ; 330
??0nsPresContext@@IAE@XZ ; 330
?NS_NewPresShell@@YAIPAPAVnsIPresShell@@@Z ; 330
?NS_NewLayoutDocumentLoaderFactory@@YAIPAPAVnsIDocumentLoaderFactory@@@Z ; 330
?FreeDynamicStack@PresShell@@AAEXXZ ; 330
??0nsCSSFrameConstructor@@QAE@XZ ; 330
??0UndisplayedMap@@QAE@I@Z ; 329
?CreateAnonymousContent@nsComboboxControlFrame@@UAGIPAVnsIPresContext@@AAVnsISupportsArray@@@Z ; 329
??0nsComboboxControlFrame@@QAE@XZ ; 329
?SetInitialChildList@ViewportFrame@@UAGIPAVnsIPresContext@@PAVnsIAtom@@PAVnsIFrame@@@Z ; 329
?InitTextStr@nsComboboxControlFrame@@IAEXPAVnsIPresContext@@H@Z ; 329
??1nsComboboxControlFrame@@UAE@XZ ; 329
?SetDropDown@nsComboboxControlFrame@@UAGIPAVnsIFrame@@@Z ; 329
?Destroy@ViewportFrame@@UAGIPAVnsIPresContext@@@Z ; 329
?SaveState@nsComboboxControlFrame@@UAGIPAVnsIPresContext@@PAPAVnsIPresState@@@Z ; 329
??_GnsComboboxControlFrame@@UAEPAXI@Z ; 329
?SetRootFrame@FrameManager@@UAGIPAVnsIFrame@@@Z ; 329
?Destroy@nsComboboxControlFrame@@UAGIPAVnsIPresContext@@@Z ; 329
??1UndisplayedMap@@QAE@XZ ; 329
?InitialReflow@PresShell@@UAGIHH@Z ; 329
?Init@nsComboboxControlFrame@@UAGIPAVnsIPresContext@@PAVnsIContent@@PAVnsIFrame@@PAVnsIStyleContext@@2@Z ; 329
?NS_NewViewportFrame@@YAIPAVnsIPresShell@@PAPAVnsIFrame@@@Z ; 329
?ConstructRootFrame@nsCSSFrameConstructor@@UAGIPAVnsIPresShell@@PAVnsIPresContext@@PAVnsIContent@@AAPAVnsIFrame@@@Z ; 329
?SetComboboxFrame@nsListControlFrame@@UAGIPAVnsIFrame@@@Z ; 329
?NS_NewComboboxControlFrame@@YAIPAVnsIPresShell@@PAPAVnsIFrame@@I@Z ; 329
??_GViewportFrame@@UAEPAXI@Z ; 329
?SetFrameConstructor@nsComboboxControlFrame@@UAGIPAVnsCSSFrameConstructor@@@Z ; 329
?IsInside@nsImageMap@@QAEHHHPAPAVnsIContent@@AAVnsString@@11PAH@Z ; 327
?GetProperty@nsListControlFrame@@UAGIPAVnsIAtom@@AAVnsAString@@@Z ; 327
?AllocateSpecialHeight@@YAXPAVnsIPresContext@@PAVnsTableFrame@@PAVnsIFrame@@AAH@Z ; 323
?NS_NewCanvasFrame@@YAIPAVnsIPresShell@@PAPAVnsIFrame@@@Z ; 321
?BeginLoad@PresShell@@UAGIPAVnsIDocument@@@Z ; 321
?CreateDocument@nsLayoutDLF@@QAEIPBDPAVnsIChannel@@PAVnsILoadGroup@@PAVnsISupports@@ABUnsID@@PAPAVnsIStreamListener@@PAPAVnsIContentViewer@@@Z ; 321
?Reflow@nsImageControlFrame@@UAGIPAVnsIPresContext@@AAUnsHTMLReflowMetrics@@ABUnsHTMLReflowState@@AAI@Z ; 320
?GetDefaultVisitedLinkColor@nsPresContext@@UAGIPAI@Z ; 319
?SetPrefLinkRules@PresShell@@IAEIXZ ; 319
?GetFocusTextColor@nsPresContext@@UAGIPAI@Z ; 319
?GetDefaultLinkColor@nsPresContext@@UAGIPAI@Z ; 319
?SetCaretEnabled@PresShell@@UAGIH@Z ; 319
?SetPrefFocusRules@PresShell@@IAEIXZ ; 319
?GetFocusRingWidth@nsPresContext@@UAGIPAE@Z ; 319
?GetUseFocusColors@nsPresContext@@UAGIAAH@Z ; 319
?CreatePreferenceStyleSheet@PresShell@@IAEIXZ ; 319
?GetFocusBackgroundColor@nsPresContext@@UAGIPAI@Z ; 319
?SetPrefColorRules@PresShell@@IAEIXZ ; 319
?GetFocusRingOnAnything@nsPresContext@@UAGIAAH@Z ; 319
?UpdateSelection@nsComboboxControlFrame@@UAGIHHH@Z ; 314
?UpdateSelection@nsListControlFrame@@UAGIHHPAVnsIContent@@@Z ; 314
?SelectionChanged@nsComboboxControlFrame@@UAGIXZ ; 314
?CreateDisplayFrame@nsComboboxControlFrame@@MAGIPAVnsIPresContext@@@Z ; 314
?AppendTo@nsTextFragment@@QBEXAAVnsString@@@Z ; 314
?HandleEvent@nsSliderFrame@@UAGIPAVnsIPresContext@@PAUnsGUIEvent@@PAW4nsEventStatus@@@Z ; 311
?IsMenu@nsMenuFrame@@QAEHXZ ; 309
?GetAdditionalStyleContext@nsHTMLButtonControlFrame@@UBGIHPAPAVnsIStyleContext@@@Z ; 309
?GetStyleContext@nsButtonFrameRenderer@@UBEIHPAPAVnsIStyleContext@@@Z ; 309
?RemoveOption@nsListControlFrame@@UAGIPAVnsIPresContext@@H@Z ; 308
?AddOption@nsListControlFrame@@UAGIPAVnsIPresContext@@H@Z ; 308
?RemoveDummyFrameFromSelect@nsCSSFrameConstructor@@IAEIPAVnsIPresContext@@PAVnsIPresShell@@PAVnsIContent@@2PAVnsIDOMHTMLSelectElement@@@Z ; 308
?GetOptionsContainer@nsListControlFrame@@UAGIPAVnsIPresContext@@PAPAVnsIFrame@@@Z ; 308
?AppendCell@nsTableFrame@@UAEHAAVnsIPresContext@@AAVnsTableCellFrame@@H@Z ; 306
??0nsFormControlFrame@@QAE@XZ ; 306
??1nsFormControlFrame@@MAE@XZ ; 306
?ForceDrawFrame@nsFormControlHelper@@SAXPAVnsIPresContext@@PAVnsIFrame@@@Z ; 306
?AppendCell@nsTableCellMap@@QAEHAAVnsTableCellFrame@@HH@Z ; 306
?Destroy@nsFormControlFrame@@UAGIPAVnsIPresContext@@@Z ; 306
?InitializeControl@nsFormControlFrame@@UAEXPAVnsIPresContext@@@Z ; 306
?IsDisabled@nsMenuFrame@@QAEHXZ ; 305
?FillCurrentData@DrawSelectionIterator@@AAEXXZ ; 305
?SetCurrentMenuItem@nsMenuPopupFrame@@UAGIPAVnsIMenuFrame@@@Z ; 304
?Desecrate@nsBoxSizeListImpl@@UAEXAAVnsBoxLayoutState@@@Z ; 301
?AddBorderPaddingToMaxElementSize@nsHTMLReflowMetrics@@QAEXABUnsMargin@@@Z ; 301
??0nsFrameImageLoader@@IAE@XZ ; 294
??_GnsFrameImageLoader@@MAEPAXI@Z ; 294
?Init@nsFrameImageLoader@@UAGIPAVnsIPresContext@@PAVnsIImageGroup@@ABVnsString@@PBIPBUnsSize@@PAVnsIFrame@@W4nsImageAnimation@@P6AI0PAVnsIFrameImageLoader@@5PAXI@Z88@Z ; 294
?NS_CheckContentLoadPolicy@@YAIHABVnsString@@PAVnsIDOMElement@@PAH@Z ; 294
??1nsFrameImageLoader@@MAE@XZ ; 294
?NS_NewFrameImageLoader@@YAIPAPAVnsIFrameImageLoader@@@Z ; 294
?GrowBy@nsAutoTextBuffer@@QAEIHH@Z ; 292
?GetPrefSize@nsXULTreeOuterGroupFrame@@UAGIAAVnsBoxLayoutState@@AAUnsSize@@@Z ; 289
?GetName@nsRadioControlGroup@@QBEXAAVnsString@@@Z ; 286
?SetPrevInFlow@nsFrame@@UAGIPAVnsIFrame@@@Z ; 284
?Append@nsBoxSizeListImpl@@UAEXAAVnsBoxLayoutState@@PAVnsBoxSizeList@@@Z ; 284
?SetFormFrame@nsImageControlFrame@@UAEXPAVnsFormFrame@@@Z ; 283
?GetRowCount@nsXULTreeOuterGroupFrame@@QAEHXZ ; 279
?SplitVertically@BandRect@nsSpaceManager@@QAEPAU12@H@Z ; 278
?GetRadioState@nsGfxRadioControlFrame@@MAEHXZ ; 274
?SetCurrentPosition@nsSliderFrame@@AAEXPAVnsIContent@@PAVnsIFrame@@H@Z ; 273
?DivideBand@nsSpaceManager@@IAEXPAUBandRect@1@H@Z ; 273
?GetAscent@nsScrollBoxFrame@@UAGIAAVnsBoxLayoutState@@AAH@Z ; 271
?ReflowStandard@nsGfxTextControlFrame2@@MAGIPAVnsIPresContext@@AAUnsSize@@ABUnsHTMLReflowState@@AAIAAUnsMargin@@4@Z ; 271
?CalculateSizeStandard@nsGfxTextControlFrame2@@IAEHPAVnsIPresContext@@PAVnsIRenderingContext@@PAVnsIFormControlFrame@@AAUnsInputDimensionSpec@@AAUnsSize@@4AAHAAUnsMargin@@6H@Z ; 271
??1DrawSelectionIterator@@QAE@XZ ; 270
??0DrawSelectionIterator@@QAE@PBUSelectionDetails@@PAGIAAUTextStyle@nsTextFrame@@F@Z ; 270
?UpdateMenuType@nsMenuFrame@@IAEXPAVnsIPresContext@@@Z ; 265
?Destroy@nsMenuFrame@@UAGIPAVnsIPresContext@@@Z ; 265
?SetInitialChildList@nsMenuFrame@@UAGIPAVnsIPresContext@@PAVnsIAtom@@PAVnsIFrame@@@Z ; 265
?BuildAcceleratorText@nsMenuFrame@@IAEXAAVnsString@@@Z ; 265
?NS_NewMenuFrame@@YAIPAVnsIPresShell@@PAPAVnsIFrame@@I@Z ; 265
??_GnsMenuFrame@@UAEPAXI@Z ; 265
?Init@nsMenuFrame@@UAGIPAVnsIPresContext@@PAVnsIContent@@PAVnsIFrame@@PAVnsIStyleContext@@2@Z ; 265
??1nsMenuFrame@@UAE@XZ ; 265
??0nsMenuFrame@@QAE@PAVnsIPresShell@@@Z ; 265
?UpdateMenuSpecialState@nsMenuFrame@@IAEXPAVnsIPresContext@@@Z ; 265
??1nsOutlinerImageListener@@UAE@XZ ; 263
??_GnsOutlinerImageListener@@UAEPAXI@Z ; 263
??0nsOutlinerImageListener@@QAE@PAVnsIOutlinerBoxObject@@PBG@Z ; 263
?GetDataForTableSelection@nsFrame@@MAGIPAVnsIFrameSelection@@PAUnsMouseEvent@@PAPAVnsIContent@@PAH3@Z ; 261
?SetSelected@nsFrame@@UAGIPAVnsIPresContext@@PAVnsIDOMRange@@HW4nsSpread@@@Z ; 257
?GetCheckboxState@nsGfxCheckboxControlFrame@@IAE?AW4CheckState@1@XZ ; 257
?GetMouseDownState@nsTextInputSelectionImpl@@UAGIPAH@Z ; 256
?Redraw@nsXULTreeGroupFrame@@UAGIAAVnsBoxLayoutState@@PBUnsRect@@H@Z ; 251
?Init@nsImageMap@@QAEIPAVnsIPresShell@@PAVnsIFrame@@PAVnsIDOMHTMLMapElement@@@Z ; 249
?UpdateAreas@nsImageMap@@IAEIXZ ; 249
??0nsImageMap@@QAE@XZ ; 249
?SetTextControlFrameState@nsGfxTextControlFrame2@@QAEXABVnsAString@@@Z ; 249
?GetFrameForPoint@nsXULTreeCellFrame@@UAGIPAVnsIPresContext@@ABUnsPoint@@W4nsFramePaintLayer@@PAPAVnsIFrame@@@Z ; 246
??0nsBoxLayoutState@@QAE@ABV0@@Z ; 245
??1nsImageMap@@MAE@XZ ; 244
?ConvertTransformedTextToUnicode@nsTextTransformer@@IAEXXZ ; 244
?Desecrate@nsBoxSizeListNodeImpl@@UAEXAAVnsBoxLayoutState@@@Z ; 244
?Destroy@nsImageMap@@QAEXXZ ; 244
??_GnsImageMap@@MAEPAXI@Z ; 244
?ReflowDirtyChild@nsBoxFrame@@UAGIPAVnsIPresShell@@PAVnsIFrame@@@Z ; 241
?SelectAll@nsTextInputSelectionImpl@@UAGIXZ ; 241
?PlatformToDOMLineBreaks@nsFormControlHelper@@SAXAAVnsString@@@Z ; 241
?Paint@nsGfxCheckboxControlFrame@@UAGIPAVnsIPresContext@@AAVnsIRenderingContext@@ABUnsRect@@W4nsFramePaintLayer@@@Z ; 240
?Reflow@nsHTMLFrameOuterFrame@@UAGIPAVnsIPresContext@@AAUnsHTMLReflowMetrics@@ABUnsHTMLReflowState@@AAI@Z ; 239
?Reflow@nsHTMLFrameInnerFrame@@UAGIPAVnsIPresContext@@AAUnsHTMLReflowMetrics@@ABUnsHTMLReflowState@@AAI@Z ; 239
?GetDesiredSize@nsHTMLFrameInnerFrame@@MAEXPAVnsIPresContext@@ABUnsHTMLReflowState@@AAUnsHTMLReflowMetrics@@@Z ; 239
?GetMaxSize@nsGfxScrollFrame@@UAGIAAVnsBoxLayoutState@@AAUnsSize@@@Z ; 239
?QueryInterface@nsPopupSetBoxObject@@UAGIABUnsID@@PAPAX@Z ; 239
?GetScrollbarVisibility@nsGfxScrollFrame@@UBGIPAVnsIPresContext@@PAH1@Z ; 238
?GetPointFromOffset@nsFrame@@UAGIPAVnsIPresContext@@PAVnsIRenderingContext@@HPAUnsPoint@@@Z ; 237
?IsActive@nsMenuBarFrame@@UAGIXZ ; 235
?CaretBlinkCallback@nsCaret@@SAXPAVnsITimer@@PAX@Z ; 229
?GetMinSize@nsGfxScrollFrame@@UAGIAAVnsBoxLayoutState@@AAUnsSize@@@Z ; 225
?QueryInterface@nsTreeItemDragCapturer@@UAGIABUnsID@@PAPAX@Z ; 225
?GetTreeContent@nsXULTreeOuterGroupFrame@@QAEXPAPAVnsIContent@@@Z ; 224
?SetProperty@nsGfxTextControlFrame2@@UAGIPAVnsIPresContext@@PAVnsIAtom@@ABVnsAString@@@Z ; 223
?GetNumLines@nsLineIterator@@UAGIPAH@Z ; 223
??1PresShellViewEventListener@@UAE@XZ ; 221
??0PresShellViewEventListener@@QAE@XZ ; 221
??_GPresShellViewEventListener@@UAEPAXI@Z ; 221
?QueryInterface@nsOutlinerImageListener@@UAGIABUnsID@@PAPAX@Z ; 220
?InitializeControl@nsGfxRadioControlFrame@@UAEXPAVnsIPresContext@@@Z ; 219
?SetRadioButtonFaceStyleContext@nsGfxRadioControlFrame@@UAGIPAVnsIStyleContext@@@Z ; 219
?SaveState@nsGfxRadioControlFrame@@UAGIPAVnsIPresContext@@PAPAVnsIPresState@@@Z ; 219
?ConstructRadioControlFrame@nsCSSFrameConstructor@@IAEIPAVnsIPresShell@@PAVnsIPresContext@@AAPAVnsIFrame@@PAVnsIContent@@PAVnsIStyleContext@@@Z ; 219
?SetRadioState@nsGfxRadioControlFrame@@MAEXPAVnsIPresContext@@H@Z ; 219
?NS_NewGfxRadioControlFrame@@YAIPAVnsIPresShell@@PAPAVnsIFrame@@@Z ; 219
??1nsGfxRadioControlFrame@@UAE@XZ ; 219
??0nsGfxRadioControlFrame@@QAE@XZ ; 219
?IsRestored@nsGfxRadioControlFrame@@UAEHXZ ; 219
??_EnsGfxRadioControlFrame@@UAEPAXI@Z ; 219
?AddRadio@nsRadioControlGroup@@QAEHPAVnsGfxRadioControlFrame@@@Z ; 219
?DoDefaultSelection@nsFormFrame@@IAEXPAVnsIPresContext@@PAVnsRadioControlGroup@@PAVnsGfxRadioControlFrame@@@Z ; 219
?GetAscent@nsGfxScrollFrame@@UAGIAAVnsBoxLayoutState@@AAH@Z ; 217
?GetParentContent@nsHTMLFrameInnerFrame@@UAGIAAPAVnsIContent@@@Z ; 216
?GetScrolling@nsHTMLFrameInnerFrame@@QAEHPAVnsIContent@@H@Z ; 216
?GetDocShell@nsBrowserBoxObject@@UAGIPAPAVnsIDocShell@@@Z ; 215
?GetSubShellFor@PresShell@@UBGIPAVnsIContent@@PAPAVnsISupports@@@Z ; 215
?GetContentAndOffsetsFromPoint@nsTextFrame@@UAGIPAVnsIPresContext@@ABUnsPoint@@PAPAVnsIContent@@AAH33@Z ; 215
?GetPosition@nsTextFrame@@UAGIPAVnsIPresContext@@ABUnsPoint@@PAPAVnsIContent@@AAH3@Z ; 215
?GetDesiredSize@nsHTMLFrameOuterFrame@@MAEXPAVnsIPresContext@@ABUnsHTMLReflowState@@AAUnsHTMLReflowMetrics@@@Z ; 214
?ReplaceFrame@FrameManager@@UAGIPAVnsIPresContext@@AAVnsIPresShell@@PAVnsIFrame@@PAVnsIAtom@@22@Z ; 213
?DestroyPLEvent@FrameManager@@CAXPAUCantRenderReplacedElementEvent@@@Z ; 213
?ConstructAlternateFrame@nsCSSFrameConstructor@@IAEIPAVnsIPresShell@@PAVnsIPresContext@@PAVnsIContent@@PAVnsIStyleContext@@PAVnsIFrame@@AAPAV6@@Z ; 213
?CantRenderReplacedElement@nsCSSFrameConstructor@@UAGIPAVnsIPresShell@@PAVnsIPresContext@@PAVnsIFrame@@@Z ; 213
?HandlePLEvent@FrameManager@@CAXPAUCantRenderReplacedElementEvent@@@Z ; 213
?SaveState@nsScrollBoxFrame@@MAGIPAVnsIPresContext@@PAPAVnsIPresState@@@Z ; 210
??1StackArena@@QAE@XZ ; 210
?DistributeSpaceToRows@nsTableFrame@@IAEXPAVnsIPresContext@@ABUnsHTMLReflowState@@PAVnsIFrame@@HHAAH3@Z ; 210
??0StackArena@@QAE@XZ ; 210
?DistributeSpaceToCells@nsTableFrame@@IAEXPAVnsIPresContext@@ABUnsHTMLReflowState@@PAVnsIFrame@@@Z ; 210
?do_GetService@@YA?BVnsGetServiceByCID@@ABUnsID@@PAI@Z ; 209
?Release@nsBoxSizeListImpl@@UAEXAAVnsBoxLayoutState@@@Z ; 208
?Paint@nsXULTreeOuterGroupFrame@@UAGIPAVnsIPresContext@@AAVnsIRenderingContext@@ABUnsRect@@W4nsFramePaintLayer@@@Z ; 207
?ReconstructDocElementHierarchy@nsCSSFrameConstructor@@UAGIPAVnsIPresContext@@@Z ; 204
?ReconstructFrames@PresShell@@IAEIXZ ; 204
??1nsBoxSizeListNodeImpl@@UAE@XZ ; 203
??0nsBoxSizeListNodeImpl@@QAE@PAVnsIBox@@@Z ; 203
?ClearPrimaryFrameMap@FrameManager@@UAGIXZ ; 201
?ClearPlaceholderFrameMap@FrameManager@@UAGIXZ ; 201
?ClearUndisplayedContentMap@FrameManager@@UAGIXZ ; 201
?StyleSheetAdded@PresShell@@UAGIPAVnsIDocument@@PAVnsIStyleSheet@@@Z ; 200
?GetBoxSize@nsBoxSizeListNodeImpl@@UAE?AVnsBoxSize@@AAVnsBoxLayoutState@@H@Z ; 198
??0nsBoxLayout@@QAE@XZ ; 198
?ReplaceFrame@nsFrameList@@QAEHPAVnsIFrame@@00@Z ; 195
?ChildResized@nsSprocketLayout@@MAEXPAVnsIBox@@AAVnsBoxLayoutState@@0PAVnsBoxSize@@PAVnsComputedBoxSize@@23ABUnsRect@@AAU6@5HAAH@Z ; 195
?ReplaceFrame@nsInlineFrame@@UAGIPAVnsIPresContext@@AAVnsIPresShell@@PAVnsIAtom@@PAVnsIFrame@@3@Z ; 195
?Append@nsContainerBox@@UAEXAAVnsBoxLayoutState@@PAVnsIFrame@@@Z ; 193
?GetFrameAtOrBefore@nsTableFrame@@SAPAVnsIFrame@@PAVnsIPresContext@@PAV2@1PAVnsIAtom@@@Z ; 191
?GetType@nsTableColGroupFrame@@QBE?AW4nsTableColGroupType@@XZ ; 191
?GetMinSize@nsTreeScrollPortFrame@@UAGIAAVnsBoxLayoutState@@AAUnsSize@@@Z ; 190
?ChildrenRemoved@nsTempleLayout@@UAGIPAVnsIBox@@AAVnsBoxLayoutState@@0@Z ; 189
?HasStyleChange@nsBoxToBlockAdaptor@@MAEHXZ ; 189
??0nsSprocketLayout@@QAE@XZ ; 189
??0nsMonumentLayout@@IAE@PAVnsIPresShell@@@Z ; 188
?HandleEvent@nsGfxButtonControlFrame@@UAGIPAVnsIPresContext@@PAUnsGUIEvent@@PAW4nsEventStatus@@@Z ; 187
?Destroy@nsImageControlFrame@@UAGIPAVnsIPresContext@@@Z ; 186
?Init@nsImageControlFrame@@UAGIPAVnsIPresContext@@PAVnsIContent@@PAVnsIFrame@@PAVnsIStyleContext@@2@Z ; 186
??0nsImageControlFrame@@QAE@XZ ; 186
??1nsImageControlFrame@@UAE@XZ ; 186
?NS_NewImageControlFrame@@YAIPAVnsIPresShell@@PAPAVnsIFrame@@@Z ; 186
?SetStyleChangeFlag@nsBoxToBlockAdaptor@@MAEXH@Z ; 186
?Release@nsScrollBoxObject@@UAGKXZ ; 186
?AddRef@nsOutlinerBoxObject@@UAGKXZ ; 186
?AppendFrames@nsTableRowFrame@@UAGIPAVnsIPresContext@@AAVnsIPresShell@@PAVnsIAtom@@PAVnsIFrame@@@Z ; 186
??_EnsImageControlFrame@@UAEPAXI@Z ; 186
?AppendFrames@nsTableRowGroupFrame@@UAGIPAVnsIPresContext@@AAVnsIPresShell@@PAVnsIAtom@@PAVnsIFrame@@@Z ; 184
?GetStartRowIndex@nsTableFrame@@QAEHAAVnsTableRowGroupFrame@@@Z ; 184
?AppendRows@nsTableFrame@@QAEXAAVnsIPresContext@@AAVnsTableRowGroupFrame@@HAAVnsVoidArray@@@Z ; 184
?Next@DrawSelectionIterator@@QAEHXZ ; 181
?CurrentTextCStrPtr@DrawSelectionIterator@@QAEPADXZ ; 181
?CurrentForeGroundColor@DrawSelectionIterator@@QAEIXZ ; 181
?CurrentBackGroundColor@DrawSelectionIterator@@QAEHAAI@Z ; 181
?CurrentLength@DrawSelectionIterator@@QAEIXZ ; 181
?ContentChanged@PresShell@@UAGIPAVnsIDocument@@PAVnsIContent@@PAVnsISupports@@@Z ; 179
?ContentChanged@nsCSSFrameConstructor@@UAGIPAVnsIPresContext@@PAVnsIContent@@PAVnsISupports@@@Z ; 179
?GetActiveChild@nsPopupSetFrame@@QAEPAVnsIFrame@@XZ ; 177
?QueryInterface@nsXULTreeFrame@@UAGIABUnsID@@PAPAX@Z ; 173
?GetBaseURL@nsPresContext@@UAGIPAPAVnsIURI@@@Z ; 172
?SetSelected@nsTableCellFrame@@UAGIPAVnsIPresContext@@PAVnsIDOMRange@@HW4nsSpread@@@Z ; 172
??_EnsString@@UAEPAXI@Z ; 171
?GetContentAndOffsetsFromPoint@nsFrame@@UAGIPAVnsIPresContext@@ABUnsPoint@@PAPAVnsIContent@@AAH33@Z ; 170
?GetContentAndOffsetsFromPoint@BRFrame@@UAGIPAVnsIPresContext@@ABUnsPoint@@PAPAVnsIContent@@AAH33@Z ; 169
?Paint@nsOutlinerBodyFrame@@UAGIPAVnsIPresContext@@AAVnsIRenderingContext@@ABUnsRect@@W4nsFramePaintLayer@@@Z ; 168
?IR_TargetIsMe@nsTableRowGroupFrame@@MAGIPAVnsIPresContext@@AAUnsHTMLReflowMetrics@@AAUnsRowGroupReflowState@@AAI@Z ; 167
??0nsRowGroupReflowState@@QAE@ABU0@@Z ; 167
?IR_TargetIsMe@nsTableRowFrame@@MAGIPAVnsIPresContext@@AAUnsHTMLReflowMetrics@@ABUnsHTMLReflowState@@AAVnsTableFrame@@AAI@Z ; 166
?NS_MakeAbsoluteURI@@YAIAAVnsAString@@ABV1@PAVnsIURI@@PAVnsIIOService@@@Z ; 161
?Paint@nsGfxRadioControlFrame@@UAGIPAVnsIPresContext@@AAVnsIRenderingContext@@ABUnsRect@@W4nsFramePaintLayer@@@Z ; 159
?ScanPreWrapWhiteSpace_F@nsTextTransformer@@IAEHPAH@Z ; 158
?Paint@nsScrollFrame@@UAGIPAVnsIPresContext@@AAVnsIRenderingContext@@ABUnsRect@@W4nsFramePaintLayer@@@Z ; 156
?Paint@nsListControlFrame@@UAGIPAVnsIPresContext@@AAVnsIRenderingContext@@ABUnsRect@@W4nsFramePaintLayer@@@Z ; 156
?GetPrevSiblingFor@nsFrameList@@QBEPAVnsIFrame@@PAV2@@Z ; 152
?RemoveRadioControlFrame@nsFormFrame@@QAEXPAVnsIFormControlFrame@@@Z ; 151
?PositionChanged@nsOutlinerBodyFrame@@UAGIHAAH@Z ; 151
?HandleEvent@nsImageFrame@@UAGIPAVnsIPresContext@@PAUnsGUIEvent@@PAW4nsEventStatus@@@Z ; 151
?GetBox@nsContainerBox@@UAEPAVnsIBox@@PAVnsIFrame@@@Z ; 148
?CreateTreeWidgetContent@nsCSSFrameConstructor@@UAGIPAVnsIPresContext@@PAVnsIFrame@@1PAVnsIContent@@PAPAV3@HHPAVnsILayoutHistoryState@@@Z ; 144
?TreeAppendFrames@nsXULTreeGroupFrame@@UAGIPAVnsIFrame@@@Z ; 144
?QueryInterface@nsOutlinerBoxObject@@UAGIABUnsID@@PAPAX@Z ; 143
?StopAutoScrollTimer@nsTextInputSelectionImpl@@UAGIXZ ; 141
?GetScrollableView@nsMenuPopupFrame@@QAEPAVnsIScrollableView@@PAVnsIFrame@@@Z ; 138
?HandleDrag@nsTextInputSelectionImpl@@UAGIPAVnsIPresContext@@PAVnsIFrame@@AAUnsPoint@@@Z ; 138
?StartAutoScrollTimer@nsTextInputSelectionImpl@@UAGIPAVnsIPresContext@@PAVnsIFrame@@AAUnsPoint@@I@Z ; 138
?KeyUp@nsMenuBarListener@@UAEIPAVnsIDOMEvent@@@Z ; 136
?IsAccessKeyPressed@nsMenuBarListener@@IAEHPAVnsIDOMKeyEvent@@@Z ; 136
?QueryInterface@nsPopupSetFrame@@UAGIABUnsID@@PAPAX@Z ; 136
?KeyDown@nsMenuBarListener@@UAEIPAVnsIDOMEvent@@@Z ; 136
?SetStatePropertyAsSupports@nsPresState@@UAGIABVnsAString@@PAVnsISupports@@@Z ; 135
?WillMerge@nsTextInputListener@@UAGIPAVnsITransactionManager@@PAVnsITransaction@@1PAH@Z ; 134
?GetCurrentCheckState@nsFormControlFrame@@IAEIPAH@Z ; 133
?GetNextPrevLineFromeBlockFrame@nsFrame@@SAIPAVnsIPresContext@@PAUnsPeekOffsetStruct@@PAVnsIFrame@@HC@Z ; 133
?RemoveNodeFor@UndisplayedMap@@QAEIPAVnsIContent@@PAVUndisplayedNode@@@Z ; 130
?RemoveRadio@nsRadioControlGroup@@QAEHPAVnsGfxRadioControlFrame@@@Z ; 129
?IR_TargetIsMe@nsTableFrame@@MAGIPAVnsIPresContext@@AAUnsTableReflowState@@AAI@Z ; 129
?KeyPress@nsMenuBarListener@@UAEIPAVnsIDOMEvent@@@Z ; 129
??0nsBoxSizeListImpl@@QAE@PAVnsIBox@@@Z ; 127
??_GnsBoxSizeListImpl@@UAEPAXI@Z ; 127
??1nsBoxSizeListImpl@@UAE@XZ ; 127
?Destroy@nsBoxSizeListImpl@@UAEXAAVnsBoxLayoutState@@@Z ; 127
?GetPrefSize@nsGfxScrollFrame@@UAGIAAVnsBoxLayoutState@@AAUnsSize@@@Z ; 126
??1FrameHashTable@@QAE@XZ ; 125
??0FrameHashTable@@QAE@I@Z ; 125
?SetOptionIntoPresState@nsListControlFrame@@IAEIPAVnsISupportsArray@@HH@Z ; 124
?First@DrawSelectionIterator@@QAEHXZ ; 124
?NS_NewFrameTraversal@@YAIPAPAVnsIBidirectionalEnumerator@@W4nsTraversalType@@PAVnsIPresContext@@PAVnsIFrame@@@Z ; 124
??0nsFrameIterator@@QAE@XZ ; 124
?Release@nsFrameIterator@@UAGKXZ ; 124
??0nsLeafIterator@@QAE@PAVnsIPresContext@@PAVnsIFrame@@@Z ; 124
?GetLastLeaf@nsFrame@@KAXPAVnsIPresContext@@PAPAVnsIFrame@@@Z ; 122
?GetScrollPreference@nsGfxScrollFrame@@UBGIPAVnsIPresContext@@PAW4nsScrollPref@nsIScrollableFrame@@@Z ; 121
?Reflow@nsAbsoluteContainingBlock@@QAEIPAVnsIFrame@@PAVnsIPresContext@@ABUnsHTMLReflowState@@HHAAUnsRect@@@Z ; 120
?RemoveFrame@nsFormFrame@@UAGIPAVnsIPresContext@@AAVnsIPresShell@@PAVnsIAtom@@PAVnsIFrame@@@Z ; 120
?GetYPosition@nsXULTreeOuterGroupFrame@@UAEHXZ ; 119
?CreateXULDocumentFromStream@nsLayoutDLF@@QAEIAAVnsIInputStream@@PBDPAVnsISupports@@2PAPAVnsIContentViewer@@@Z ; 116
?GetInnerBox@nsOutlinerBodyFrame@@IAE?AUnsRect@@XZ ; 115
?ContentChanged@nsTextFrame@@UAGIPAVnsIPresContext@@PAVnsIContent@@PAVnsISupports@@@Z ; 114
?PostReflowCallback@nsXULTreeOuterGroupFrame@@QAEXXZ ; 113
?EnscriptionChanged@nsTempleLayout@@UAGIAAVnsBoxLayoutState@@H@Z ; 112
?GetFixedRowSize@nsXULTreeOuterGroupFrame@@QAEHXZ ; 112
?FindFrameAt@nsLineIterator@@UAGIHHPAPAVnsIFrame@@PAH1@Z ; 112
?ChildBecameDirty@nsObeliskLayout@@UAGIPAVnsIBox@@AAVnsBoxLayoutState@@0@Z ; 112
?GetRowHeight@nsOutlinerBodyFrame@@IAEHXZ ; 111
?GetIndexOfFirstVisibleRow@nsXULTreeOuterGroupFrame@@UAGIPAH@Z ; 111
?GetIndentation@nsOutlinerBodyFrame@@IAEHXZ ; 110
?QueryInterface@nsAutoRepeatBoxFrame@@UAGIABUnsID@@PAPAX@Z ; 110
?DoLayout@nsXULTreeOuterGroupFrame@@UAGIAAVnsBoxLayoutState@@@Z ; 110
?SizeTo@nsXULTreeOuterGroupFrame@@UAGIPAVnsIPresContext@@HH@Z ; 110
?EnsureColumns@nsOutlinerBodyFrame@@IAEXXZ ; 110
?QueryInterface@nsSplitterFrameInner@@UAGIABUnsID@@PAPAX@Z ; 109
?CreateDocShell@nsHTMLFrameInnerFrame@@IAEIPAVnsIPresContext@@ABUnsSize@@@Z ; 108
?GetMarginWidth@nsHTMLFrameInnerFrame@@QAEHPAVnsIPresContext@@PAVnsIContent@@@Z ; 108
?GetURL@nsHTMLFrameInnerFrame@@QAEHPAVnsIContent@@AAVnsString@@@Z ; 108
?GetName@nsHTMLFrameInnerFrame@@QAEHPAVnsIContent@@AAVnsString@@@Z ; 108
?DoLoadURL@nsHTMLFrameInnerFrame@@IAEIPAVnsIPresContext@@@Z ; 108
??_EnsHTMLFrameOuterFrame@@MAEPAXI@Z ; 108
?NS_NewHTMLFrameOuterFrame@@YAIPAVnsIPresShell@@PAPAVnsIFrame@@@Z ; 108
?SetSubShellFor@PresShell@@UAGIPAVnsIContent@@PAVnsISupports@@@Z ; 108
?Init@nsHTMLFrameOuterFrame@@UAGIPAVnsIPresContext@@PAVnsIContent@@PAVnsIFrame@@PAVnsIStyleContext@@2@Z ; 108
??0nsHTMLFrameInnerFrame@@QAE@XZ ; 108
??0nsHTMLFrameOuterFrame@@QAE@XZ ; 108
??1nsHTMLFrameInnerFrame@@MAE@XZ ; 108
?GetAt@nsBoxSizeListNodeImpl@@UAEPAVnsBoxSizeList@@H@Z ; 108
??_GnsHTMLFrameInnerFrame@@MAEPAXI@Z ; 108
??1nsHTMLFrameOuterFrame@@MAE@XZ ; 108
?GetMarginHeight@nsHTMLFrameInnerFrame@@QAEHPAVnsIPresContext@@PAVnsIContent@@@Z ; 108
?HasFocus@Area@@QAEXH@Z ; 106
?SelectMenu@nsMenuFrame@@UAGIH@Z ; 104
?GetMouseThrough@nsBox@@UAGIAAH@Z ; 104
?InvalidateComputedSizes@nsSprocketLayout@@MAEXPAVnsComputedBoxSize@@@Z ; 104
?GetCount@nsOutlinerSelection@@UAGIPAH@Z ; 101
?ComputeTotalRowCount@nsXULTreeOuterGroupFrame@@IAEXAAHPAVnsIContent@@@Z ; 101
?IsServerImageMap@nsImageFrame@@IAEHXZ ; 100
?GetNextSiblingOnLine@nsTableRowGroupFrame@@UAGIAAPAVnsIFrame@@H@Z ; 100
?GetCursor@nsImageFrame@@UAGIPAVnsIPresContext@@AAUnsPoint@@AAH@Z ; 100
?DoLayout@nsXULTreeFrame@@UAGIAAVnsBoxLayoutState@@@Z ; 100
??_EnsTreeLayout@@UAEPAXI@Z ; 99
??1nsTempleLayout@@MAE@XZ ; 99
??0nsTempleLayout@@IAE@PAVnsIPresShell@@@Z ; 99
?GetPrefSize@nsTreeScrollPortFrame@@UAGIAAVnsBoxLayoutState@@AAUnsSize@@@Z ; 99
?SetParent@nsMenuFrame@@UAGIPBVnsIFrame@@@Z ; 98
?PostReflowCallback@PresShell@@UAGIPAVnsIReflowCallback@@@Z ; 96
?ReflowFinished@nsXULTreeOuterGroupFrame@@UAGIPAVnsIPresShell@@PAH@Z ; 96
?IsOpen@nsMenuBarFrame@@UAGIXZ ; 94
?NeedsRecalc@nsXULTreeOuterGroupFrame@@UAGIXZ ; 93
?CaptureStateFor@nsCSSFrameConstructor@@IAEIPAVnsIPresContext@@PAVnsIFrame@@PAVnsILayoutHistoryState@@@Z ; 92
?CalcPctAdjTableWidth@BasicTableLayoutStrategy@@IAEHABUnsHTMLReflowState@@HM@Z ; 92
?QueryInterface@nsLayoutHistoryState@@UAGIABUnsID@@PAPAX@Z ; 92
?Release@nsTreeItemDragCapturer@@UAGKXZ ; 90
?DoLayout@nsPopupSetFrame@@UAGIAAVnsBoxLayoutState@@@Z ; 90
?GetImageGroup@nsPresContext@@UAGIPAPAVnsIImageGroup@@@Z ; 89
??_EnsObeliskLayout@@MAEPAXI@Z ; 89
??0nsGetInterface@@QAE@PAVnsISupports@@PAI@Z ; 89
??1nsObeliskLayout@@MAE@XZ ; 89
?ChildrenRemoved@nsObeliskLayout@@UAGIPAVnsIBox@@AAVnsBoxLayoutState@@0@Z ; 89
?GetMinSize@nsScrollBoxFrame@@UAGIAAVnsBoxLayoutState@@AAUnsSize@@@Z ; 89
?NS_NewObeliskLayout@@YAIPAVnsIPresShell@@AAV?$nsCOMPtr@VnsIBoxLayout@@@@@Z ; 89
??0nsObeliskLayout@@IAE@PAVnsIPresShell@@@Z ; 89
?ScrollSelectionIntoView@PresShell@@UAGIFF@Z ; 88
?SetCheckboxState@nsGfxCheckboxControlFrame@@IAEXPAVnsIPresContext@@W4CheckState@1@@Z ; 87
?SetCheckboxFaceStyleContext@nsGfxCheckboxControlFrame@@UAGIPAVnsIStyleContext@@@Z ; 87
?NS_NewGfxCheckboxControlFrame@@YAIPAVnsIPresShell@@PAPAVnsIFrame@@@Z ; 87
??_EnsGfxCheckboxControlFrame@@UAEPAXI@Z ; 87
?SaveState@nsGfxCheckboxControlFrame@@UAGIPAVnsIPresContext@@PAPAVnsIPresState@@@Z ; 87
?GetTristateAtom@nsGfxCheckboxControlFrame@@KAPAVnsIAtom@@XZ ; 87
??0nsGfxCheckboxControlFrame@@QAE@XZ ; 87
?Init@nsGfxCheckboxControlFrame@@UAGIPAVnsIPresContext@@PAVnsIContent@@PAVnsIFrame@@PAVnsIStyleContext@@2@Z ; 87
??1nsGfxCheckboxControlFrame@@UAE@XZ ; 87
?InitializeControl@nsGfxCheckboxControlFrame@@UAEXPAVnsIPresContext@@@Z ; 87
?ConstructCheckboxControlFrame@nsCSSFrameConstructor@@IAEIPAVnsIPresShell@@PAVnsIPresContext@@AAPAVnsIFrame@@PAVnsIContent@@PAVnsIStyleContext@@@Z ; 87
?DestroyFrame@nsFrameList@@QAEHPAVnsIPresContext@@PAVnsIFrame@@@Z ; 84
?GetLayoutFlags@nsMenuPopupFrame@@MAEXAAI@Z ; 82
?GetPrefSize@nsScrollBoxFrame@@UAGIAAVnsBoxLayoutState@@AAUnsSize@@@Z ; 81
??_EnsTreeItemDragCapturer@@UAEPAXI@Z ; 81
??1nsTreeItemDragCapturer@@UAE@XZ ; 81
?NS_NewTreeLayout@@YAIPAVnsIPresShell@@AAV?$nsCOMPtr@VnsIBoxLayout@@@@@Z ; 81
??0nsTreeItemDragCapturer@@QAE@PAVnsXULTreeGroupFrame@@PAVnsIPresContext@@@Z ; 81
?Init@nsXULTreeGroupFrame@@UAGIPAVnsIPresContext@@PAVnsIContent@@PAVnsIFrame@@PAVnsIStyleContext@@2@Z ; 81
??1nsXULTreeGroupFrame@@MAE@XZ ; 81
??0nsTreeLayout@@QAE@PAVnsIPresShell@@@Z ; 81
??0nsXULTreeGroupFrame@@IAE@PAVnsIPresShell@@HPAVnsIBoxLayout@@@Z ; 81
?PaintCheckBox@nsGfxCheckboxControlFrame@@MAEXPAVnsIPresContext@@AAVnsIRenderingContext@@ABUnsRect@@W4nsFramePaintLayer@@@Z ; 80
?GetScrollableView@nsScrollFrame@@UAGIPAVnsIPresContext@@PAPAVnsIScrollableView@@@Z ; 80
?GetCheckboxControlFrameState@nsGfxCheckboxControlFrame@@IAEXAAVnsAString@@@Z ; 80
?CheckStateToString@nsGfxCheckboxControlFrame@@IAEXW4CheckState@1@AAVnsAString@@@Z ; 80
?GetProperty@nsGfxCheckboxControlFrame@@UAGIPAVnsIAtom@@AAVnsAString@@@Z ; 80
?ScrollPositionWillChange@PresShellViewEventListener@@UAGIPAVnsIScrollableView@@HH@Z ; 79
?SetContentChain@nsXULTreeGroupFrame@@QAEXPAVnsISupportsArray@@@Z ; 79
?ScrollPositionDidChange@PresShellViewEventListener@@UAGIPAVnsIScrollableView@@HH@Z ; 79
?NS_NewXULTreeCellFrame@@YAIPAVnsIPresShell@@PAPAVnsIFrame@@HPAVnsIBoxLayout@@@Z ; 77
?GetSizeAttribute@nsListControlFrame@@IAEIPAH@Z ; 77
??1nsXULTreeCellFrame@@MAE@XZ ; 77
??_GnsXULTreeCellFrame@@MAEPAXI@Z ; 77
??0nsXULTreeCellFrame@@IAE@PAVnsIPresShell@@HPAVnsIBoxLayout@@@Z ; 77
??_GnsBoxSizeListNodeImpl@@UAEPAXI@Z ; 76
?Destroy@nsBoxSizeListNodeImpl@@UAEXAAVnsBoxLayoutState@@@Z ; 76
?Release@nsBoxSizeListNodeImpl@@UAEXAAVnsBoxLayoutState@@@Z ; 76
?GetParentStyleContextProvider@nsTableFrame@@UAGIPAVnsIPresContext@@PAPAVnsIFrame@@AAW4nsContextProviderRelationship@@@Z ; 75
?GetParentStyleContextProvider@nsTableOuterFrame@@UAGIPAVnsIPresContext@@PAPAVnsIFrame@@AAW4nsContextProviderRelationship@@@Z ; 75
?Insert@nsContainerBox@@UAEXAAVnsBoxLayoutState@@PAVnsIFrame@@1@Z ; 74
?InsertFrames@nsBoxFrame@@UAGIPAVnsIPresContext@@AAVnsIPresShell@@PAVnsIAtom@@PAVnsIFrame@@3@Z ; 74
?GetLastFrame@nsXULTreeGroupFrame@@QAEPAVnsIFrame@@XZ ; 74
?NS_NewXULTreeGroupFrame@@YAIPAVnsIPresShell@@PAPAVnsIFrame@@HPAVnsIBoxLayout@@@Z ; 74
??1nsXULTreeSliceFrame@@MAE@XZ ; 74
??_GnsXULTreeSliceFrame@@MAEPAXI@Z ; 74
??0nsXULTreeSliceFrame@@IAE@PAVnsIPresShell@@HPAVnsIBoxLayout@@@Z ; 74
?NS_NewXULTreeSliceFrame@@YAIPAVnsIPresShell@@PAPAVnsIFrame@@HPAVnsIBoxLayout@@@Z ; 74
??_EnsXULTreeGroupFrame@@MAEPAXI@Z ; 74
?ContentAppended@nsImageMap@@UAGIPAVnsIDocument@@PAVnsIContent@@H@Z ; 73
?KeyPress@nsTextInputListener@@UAEIPAVnsIDOMEvent@@@Z ; 72
?InternalContentChanged@nsGfxTextControlFrame2@@UAGIXZ ; 71
?EditAction@nsTextInputListener@@UAGIXZ ; 71
?CreateScrollingViewWidget@nsScrollFrame@@MAEIPAVnsIView@@PBUnsStylePosition@@@Z ; 71
?Notify@nsBlinkTimer@@UAGXPAVnsITimer@@@Z ; 70
?Desecrated@nsObeliskLayout@@MAEXPAVnsIBox@@AAVnsBoxLayoutState@@AAVnsBoxSizeList@@@Z ; 68
?UnicodeToNewBytes@nsIsIndexFrame@@AAEPADPBGIPAVnsIUnicodeEncoder@@@Z ; 68
?HasSameFrameList@BandRect@nsSpaceManager@@QBEHPBU12@@Z ; 68
?URLEncode@nsFormFrame@@IAEPAVnsString@@ABV2@PAVnsIUnicodeEncoder@@@Z ; 68
?PaintTextSlowly@nsTextFrame@@QAEXPAVnsIPresContext@@AAVnsIRenderingContext@@PAVnsIStyleContext@@AAUTextStyle@1@HH@Z ; 67
?GetMaxSize@nsScrollBoxFrame@@UAGIAAVnsBoxLayoutState@@AAUnsSize@@@Z ; 67
?RenderString@nsTextFrame@@QAEXAAVnsIRenderingContext@@PAVnsIStyleContext@@AAUTextStyle@1@PAGHHHHPAUSelectionDetails@@@Z ; 67
?GetAltText@Area@@QBEXAAVnsString@@@Z ; 66
?GetTarget@Area@@QBEXAAVnsString@@@Z ; 66
??_GnsRadioControlGroup@@UAEPAXI@Z ; 62
??1nsRadioControlGroup@@UAE@XZ ; 62
??0nsRadioControlGroup@@QAE@AAVnsString@@@Z ; 62
?Blur@nsMenuBarListener@@UAEIPAVnsIDOMEvent@@@Z ; 61
?GetHREF@Area@@QBEXAAVnsString@@@Z ; 60
?SplitHorizontally@BandRect@nsSpaceManager@@QAEPAU12@H@Z ; 59
?AddFrame@BandRect@nsSpaceManager@@QAEXPBVnsIFrame@@@Z ; 59
?ContentChanged@nsFrame@@UAGIPAVnsIPresContext@@PAVnsIContent@@PAVnsISupports@@@Z ; 59
?InsertAfter@nsContainerBox@@UAEXAAVnsBoxLayoutState@@PAVnsIBox@@PAVnsIFrame@@@Z ; 58
?DoLayout@nsDeckFrame@@UAGIAAVnsBoxLayoutState@@@Z ; 56
?ShowBox@nsDeckFrame@@MAEXPAVnsIPresContext@@PAVnsIBox@@@Z ; 56
?HandleEvent@nsSplitterFrame@@UAGIPAVnsIPresContext@@PAUnsGUIEvent@@PAW4nsEventStatus@@@Z ; 56
?HideBox@nsDeckFrame@@MAEXPAVnsIPresContext@@PAVnsIBox@@@Z ; 56
?MouseMove@nsSplitterFrameInner@@UAEIPAVnsIDOMEvent@@@Z ; 55
?QueryInterface@nsOutlinerColFrame@@UAGIABUnsID@@PAPAX@Z ; 54
?GetProperty@nsGfxRadioControlFrame@@UAGIPAVnsIAtom@@AAVnsAString@@@Z ; 53
?GetDisabled@nsFormControlHelper@@SAIPAVnsIContent@@PAH@Z ; 53
?PaintRadioButton@nsGfxRadioControlFrame@@UAEXPAVnsIPresContext@@AAVnsIRenderingContext@@ABUnsRect@@@Z ; 53
?Next@nsLeafIterator@@EAGIXZ ; 52
?CurrentItem@nsFrameIterator@@UAGIPAPAVnsISupports@@@Z ; 52
?GetFrame@nsBoxObject@@UAEPAVnsIFrame@@XZ ; 52
?QueryInterface@nsMenuBarFrame@@UAGIABUnsID@@PAPAX@Z ; 51
?ContentReplaced@nsCSSFrameConstructor@@UAGIPAVnsIPresContext@@PAVnsIContent@@11H@Z ; 51
?QueryInterface@nsTreeBoxObject@@UAGIABUnsID@@PAPAX@Z ; 51
?ReParentStyleContext@nsPresContext@@UAGIPAVnsIFrame@@PAVnsIStyleContext@@@Z ; 50
?ContentInserted@nsImageMap@@UAGIPAVnsIDocument@@PAVnsIContent@@1H@Z ; 50
?MenuIsOpen@nsMenuFrame@@UAGIAAH@Z ; 50
?IsNested@nsTableOuterFrame@@QBEHABUnsHTMLReflowState@@@Z ; 49
?MarkChildrenStyleChange@nsMenuFrame@@UAGIXZ ; 49
?AppendFrames@nsBoxFrame@@UAGIPAVnsIPresContext@@AAVnsIPresShell@@PAVnsIAtom@@PAVnsIFrame@@@Z ; 49
?SetCurrentMenuItem@nsMenuBarFrame@@UAGIPAVnsIMenuFrame@@@Z ; 47
?HandleDOMEventWithTarget@PresShell@@UAGIPAVnsIContent@@PAUnsEvent@@PAW4nsEventStatus@@@Z ; 47
?EnsureMenuItemIsVisible@nsMenuPopupFrame@@QAEXPAVnsIMenuFrame@@@Z ; 46
?QueryInterface@nsSplitterFrame@@UAGIABUnsID@@PAPAX@Z ; 45
?UpdateTextInputCommands@nsTextInputListener@@IAEIABVnsString@@@Z ; 45
?Remove@nsContainerBox@@UAEXAAVnsBoxLayoutState@@PAVnsIFrame@@@Z ; 44
?HandleEvent@nsScrollbarButtonFrame@@UAGIPAVnsIPresContext@@PAUnsGUIEvent@@PAW4nsEventStatus@@@Z ; 44
?HandleEvent@nsComboboxControlFrame@@UAGIPAVnsIPresContext@@PAUnsGUIEvent@@PAW4nsEventStatus@@@Z ; 44
?RemoveAfter@nsContainerBox@@UAEXAAVnsBoxLayoutState@@PAVnsIBox@@@Z ; 44
?GetPrevious@nsContainerBox@@UAEPAVnsIBox@@PAVnsIFrame@@@Z ; 44
??0nsTreeIndentationFrame@@QAE@XZ ; 43
?Invalidate@nsOutlinerImageListener@@UAGIXZ ; 43
?FrameChanged@nsOutlinerImageListener@@UAGIPAVimgIContainer@@PAVnsISupports@@PAVgfxIImageFrame@@PAUnsRect@@@Z ; 43
??1nsTreeIndentationFrame@@MAE@XZ ; 43
?NS_NewTreeIndentationFrame@@YAIPAVnsIPresShell@@PAPAVnsIFrame@@@Z ; 43
??_EnsTreeIndentationFrame@@MAEPAXI@Z ; 43
?RebuildConsideringRows@nsCellMap@@IAEXPAVnsIPresContext@@AAVnsTableCellMap@@HPAVnsVoidArray@@H@Z ; 42
?QueryInterface@nsHTMLFramesetFrame@@UAGIABUnsID@@PAPAX@Z ; 40
?RemoveMappingsForFrameSubtree@nsCSSFrameConstructor@@UAGIPAVnsIPresContext@@PAVnsIFrame@@PAVnsILayoutHistoryState@@@Z ; 39
?GetSelectionRange@nsGfxTextControlFrame2@@UAGIPAH0@Z ; 39
?GetSelectedIndex@nsDeckFrame@@MAEHXZ ; 37
??0nsOutlinerColumn@@QAE@PAVnsIContent@@PAVnsIFrame@@@Z ; 36
?Paint@nsHTMLFramesetFrame@@UAGIPAVnsIPresContext@@AAVnsIRenderingContext@@ABUnsRect@@W4nsFramePaintLayer@@@Z ; 36
??_GnsOutlinerColumn@@UAEPAXI@Z ; 36
??1nsOutlinerColumn@@UAE@XZ ; 36
?IsMouseCaptured@nsFrame@@QAEHPAVnsIPresContext@@@Z ; 35
?GetName@nsListControlFrame@@UAGIPAVnsString@@@Z ; 35
?AttributeChanged@nsXULTreeGroupFrame@@UAGIPAVnsIPresContext@@PAVnsIContent@@HPAVnsIAtom@@H@Z ; 35
?ProcessPseudoFrame@@YAIPAVnsIPresContext@@AAUnsPseudoFrameData@@AAPAVnsIFrame@@@Z ; 35
?InsertFrames@nsRootBoxFrame@@UAGIPAVnsIPresContext@@AAVnsIPresShell@@PAVnsIAtom@@PAVnsIFrame@@3@Z ; 35
?RemoveFixedItems@nsCSSFrameConstructor@@IAEIAAVnsIPresContext@@AAVnsIPresShell@@@Z ; 35
?GetBorderColor@nsHTMLFramesetFrame@@IAEIXZ ; 35
?Clear@nsDST@@QAEIXZ ; 35
?AddNameSet@LayoutScriptNameSet@@UAGIPAVnsIScriptContext@@@Z ; 35
?GetFrameBorder@nsHTMLFramesetFrame@@IAE?AW4nsFrameborder@@H@Z ; 35
?CanJoinBands@nsSpaceManager@@IAEHPAUBandRect@1@0@Z ; 34
?JoinBands@nsSpaceManager@@IAEHPAUBandRect@1@0@Z ; 34
?RemoveFrame@CanvasFrame@@UAGIPAVnsIPresContext@@AAVnsIPresShell@@PAVnsIAtom@@PAVnsIFrame@@@Z ; 34
?GetFrameForPoint@nsDeckFrame@@UAGIPAVnsIPresContext@@ABUnsPoint@@W4nsFramePaintLayer@@PAPAVnsIFrame@@@Z ; 34
?AppendFrames@CanvasFrame@@UAGIPAVnsIPresContext@@AAVnsIPresShell@@PAVnsIAtom@@PAVnsIFrame@@@Z ; 34
?SetStyleContext@nsButtonFrameRenderer@@UAEIHPAVnsIStyleContext@@@Z ; 33
?MouseDown@nsMenuBarListener@@UAEIPAVnsIDOMEvent@@@Z ; 33
?SetAdditionalStyleContext@nsHTMLButtonControlFrame@@UAGIHPAVnsIStyleContext@@@Z ; 33
?MouseMove@nsListControlFrame@@UAEIPAVnsIDOMEvent@@@Z ; 33
?ScrollInternal@nsOutlinerBodyFrame@@IAEIH@Z ; 33
?MouseMove@nsListEventListener@@UAEIPAVnsIDOMEvent@@@Z ; 33
?QueryInterface@nsOutlinerSelection@@UAGIABUnsID@@PAPAX@Z ; 32
?GetSelectedBox@nsDeckFrame@@MAEPAVnsIBox@@XZ ; 32
?GetBoxAt@nsContainerBox@@UAEPAVnsIBox@@H@Z ; 32
?DoLayout@nsSplitterFrame@@UAGIAAVnsBoxLayoutState@@@Z ; 32
?GetActiveChildElement@nsPopupSetFrame@@QAEXPAPAVnsIContent@@@Z ; 32
?SetCheckedRadio@nsRadioControlGroup@@QAEXPAVnsGfxRadioControlFrame@@@Z ; 31
?PaintCheckMark@nsFormControlHelper@@SAXAAVnsIRenderingContext@@MABUnsRect@@@Z ; 31
?Release@nsMenuDismissalListener@@UAGKXZ ; 31
?GetCheckedRadio@nsRadioControlGroup@@QAEPAVnsGfxRadioControlFrame@@XZ ; 31
?Paint@nsDeckFrame@@UAGIPAVnsIPresContext@@AAVnsIRenderingContext@@ABUnsRect@@W4nsFramePaintLayer@@@Z ; 30
?CalculateChildBounds@nsAbsoluteContainingBlock@@IAEXPAVnsIPresContext@@AAUnsRect@@@Z ; 30
?ReflowPlaceChild@nsHTMLFramesetFrame@@IAEXPAVnsIFrame@@PAVnsIPresContext@@ABUnsHTMLReflowState@@AAUnsPoint@@AAUnsSize@@PAU5@@Z ; 30
?SetInitialChildList@nsPopupSetFrame@@UAGIPAVnsIPresContext@@PAVnsIAtom@@PAVnsIFrame@@@Z ; 29
??_GnsPopupSetFrame@@UAEPAXI@Z ; 29
??0nsPopupSetFrame@@QAE@PAVnsIPresShell@@@Z ; 29
?Init@nsPopupSetFrame@@UAGIPAVnsIPresContext@@PAVnsIContent@@PAVnsIFrame@@PAVnsIStyleContext@@2@Z ; 29
?NS_NewPopupSetFrame@@YAIPAVnsIPresShell@@PAPAVnsIFrame@@@Z ; 29
?Destroy@nsPopupSetFrame@@UAGIPAVnsIPresContext@@@Z ; 29
?QueryInterface@nsLayoutFactory@@UAGIABUnsID@@PAPAX@Z ; 28
?CaptureMouse@nsFrame@@UAGIPAVnsIPresContext@@H@Z ; 28
?GetName@nsGfxTextControlFrame2@@UAGIPAVnsString@@@Z ; 28
?QueryInterface@nsEditorBoxObject@@UAGIABUnsID@@PAPAX@Z ; 26
?Count@nsOutlinerRange@@QAEHXZ ; 26
?GetBorderColor@nsHTMLFramesetFrame@@IAEIPAVnsIContent@@@Z ; 25
?GetFrameForPoint@nsSelectsAreaFrame@@UAGIPAVnsIPresContext@@ABUnsPoint@@W4nsFramePaintLayer@@PAPAVnsIFrame@@@Z ; 25
?GetRangeCount@nsOutlinerSelection@@UAGIPAH@Z ; 25
?ReduceOverSpecifiedPctCols@BasicTableLayoutStrategy@@IAEXH@Z ; 25
?GetLayoutObjectFor@PresShell@@UBGIPAVnsIContent@@PAPAVnsISupports@@@Z ; 25
??0nsEvent@@QAE@XZ ; 25
?GetFrameBorder@nsHTMLFramesetFrame@@IAE?AW4nsFrameborder@@PAVnsIContent@@H@Z ; 25
?GetSizeOfChildAt@nsHTMLFramesetFrame@@QAEXHAAUnsSize@@AAUnsPoint@@@Z ; 25
?AppendFrames@nsTableFrame@@UAGIPAVnsIPresContext@@AAVnsIPresShell@@PAVnsIAtom@@PAVnsIFrame@@@Z ; 25
?GetNamesValues@nsListControlFrame@@UAEHHAAHPAVnsString@@1@Z ; 24
?MouseDrag@nsSplitterFrameInner@@QAEXPAVnsIPresContext@@PAUnsGUIEvent@@@Z ; 24
??8nsStyleCoord@@QBEHABV0@@Z ; 24
?SetPreferredSize@nsSplitterFrameInner@@QAEXAAVnsBoxLayoutState@@PAVnsIBox@@HHPAH@Z ; 24
?GetCursor@nsSplitterFrame@@UAGIPAVnsIPresContext@@AAUnsPoint@@AAH@Z ; 24
?IsInside@CircleArea@@UAEHHH@Z ; 23
?IsOptionElementFrame@nsSelectsAreaFrame@@IAEHPAVnsIFrame@@@Z ; 23
?GetState@nsSplitterFrameInner@@QAE?AW4State@1@XZ ; 23
?SetListener@nsBoxSizeListImpl@@UAEHPAVnsIBox@@AAVnsBoxSizeListener@@@Z ; 23
?HandleRelease@nsSliderFrame@@UAGIPAVnsIPresContext@@PAUnsGUIEvent@@PAW4nsEventStatus@@@Z ; 23
?IsOptionElement@nsListControlFrame@@IAEHPAVnsIContent@@@Z ; 23
?GetNearestEnclosingView@nsMenuPopupFrame@@SAXPAVnsIPresContext@@PAVnsIFrame@@PAPAVnsIView@@@Z ; 23
?NS_NewAutoRepeatBoxFrame@@YAIPAVnsIPresShell@@PAPAVnsIFrame@@@Z ; 22
?Init@nsAutoRepeatBoxFrame@@UAGIPAVnsIPresContext@@PAVnsIContent@@PAVnsIFrame@@PAVnsIStyleContext@@2@Z ; 22
?ActivatePopup@nsPopupSetFrame@@QAEXH@Z ; 22
??0nsStyleColor@@QAE@ABU0@@Z ; 22
??0nsAutoRepeatBoxFrame@@QAE@PAVnsIPresShell@@@Z ; 22
?DestroyPopup@nsPopupSetFrame@@UAGIXZ ; 21
?Release@nsFrameTraversal@@UAGKXZ ; 21
?HandlePress@nsFrame@@UAGIPAVnsIPresContext@@PAUnsGUIEvent@@PAW4nsEventStatus@@@Z ; 21
?SetChildListName@nsHTMLReflowCommand@@UAGIPAVnsIAtom@@@Z ; 20
?AppendFrames@nsAbsoluteContainingBlock@@QAEIPAVnsIFrame@@PAVnsIPresContext@@AAVnsIPresShell@@PAVnsIAtom@@0@Z ; 20
?IR_TargetIsMe@nsTableOuterFrame@@MAGIPAVnsIPresContext@@AAUnsHTMLReflowMetrics@@ABUnsHTMLReflowState@@AAI@Z ; 20
?OpenPopup@nsPopupSetFrame@@QAEXH@Z ; 20
?IR_StyleChanged@nsTableFrame@@MAGIPAVnsIPresContext@@AAUnsTableReflowState@@AAI@Z ; 20
?FindLineContaining@nsLineIterator@@UAGIPAVnsIFrame@@PAH@Z ; 20
?CalculateRowCol@nsHTMLFramesetFrame@@IAEXPAVnsIPresContext@@HHPAUnsFramesetSpec@@PAH@Z ; 20
?OnCreate@nsPopupSetFrame@@QAEHPAVnsIContent@@@Z ; 20
?ParseRowCol@nsHTMLFramesetFrame@@IAEXPAVnsIPresContext@@PAVnsIAtom@@AAHPAPAUnsFramesetSpec@@@Z ; 20
?SetCaretDOMSelection@nsCaret@@UAGIPAVnsISelection@@@Z ; 20
?CreatePopup@nsPopupSetFrame@@UAGIPAVnsIContent@@0HHABVnsString@@11@Z ; 20
?CreatePopup@nsPopupSetBoxObject@@UAGIPAVnsIDOMElement@@0HHPBG11@Z ; 20
?UnSet@nsFramesetDrag@@QAEXXZ ; 20
?GetNumCellsOriginatingInRow@nsTableCellMap@@QAEHH@Z ; 20
?RepaintSelection@nsTextInputSelectionImpl@@UAGIF@Z ; 19
?SetCaretEnabled@nsTextInputSelectionImpl@@UAGIH@Z ; 19
?DestroyPopup@nsPopupSetBoxObject@@UAGIXZ ; 19
?Init@nsMenuPopupFrame@@UAGIPAVnsIPresContext@@PAVnsIContent@@PAVnsIFrame@@PAVnsIStyleContext@@2@Z ; 19
??_EnsMenuPopupFrame@@UAEPAXI@Z ; 19
?SetDebug@nsMenuFrame@@IAEIAAVnsBoxLayoutState@@PAVnsIFrame@@H@Z ; 19
?GetEditor@nsGfxTextControlFrame2@@UAGIPAPAVnsIEditor@@@Z ; 19
?NS_NewMenuPopupFrame@@YAIPAVnsIPresShell@@PAPAVnsIFrame@@@Z ; 19
??0nsMenuPopupFrame@@QAE@PAVnsIPresShell@@@Z ; 19
?RemoveFrame@nsBoxFrame@@UAGIPAVnsIPresContext@@AAVnsIPresShell@@PAVnsIAtom@@PAVnsIFrame@@@Z ; 19
?MouseOut@nsSplitterFrameInner@@UAEIPAVnsIDOMEvent@@@Z ; 18
?NS_NewStackFrame@@YAIPAVnsIPresShell@@PAPAVnsIFrame@@PAVnsIBoxLayout@@@Z ; 18
?Paint@nsLabelFrame@@UAGIPAVnsIPresContext@@AAVnsIRenderingContext@@ABUnsRect@@W4nsFramePaintLayer@@@Z ; 18
?NS_NewTempleLayout@@YAIPAVnsIPresShell@@AAV?$nsCOMPtr@VnsIBoxLayout@@@@@Z ; 18
?InvalidateRow@nsOutlinerBodyFrame@@UAGIH@Z ; 18
?ReplaceFrame@nsContainerFrame@@UAGIPAVnsIPresContext@@AAVnsIPresShell@@PAVnsIAtom@@PAVnsIFrame@@3@Z ; 18
?WillBeDestroyed@nsObeliskLayout@@MAEXPAVnsIBox@@AAVnsBoxLayoutState@@AAVnsBoxSizeList@@@Z ; 17
?HandleRelease@nsFrame@@UAGIPAVnsIPresContext@@PAUnsGUIEvent@@PAW4nsEventStatus@@@Z ; 17
?PeekOffset@nsTextFrame@@UAGIPAVnsIPresContext@@PAUnsPeekOffsetStruct@@@Z ; 17
?UpdateState@nsSplitterFrameInner@@QAEXXZ ; 17
?GetMenuChildrenElement@nsMenuFrame@@IAEXPAPAVnsIContent@@@Z ; 17
?RepaintSelection@PresShell@@UAGIF@Z ; 17
?GetCellDataAt@nsTableOuterFrame@@UAGIHHAAPAVnsIDOMElement@@AAH111111@Z ; 17
?GetCellDataAt@nsTableFrame@@UAGIHHAAPAVnsIDOMElement@@AAH111111@Z ; 17
?Release@nsLayoutModule@@UAGKXZ ; 16
?GetOptionValue@nsListControlFrame@@SAHAAVnsIDOMHTMLCollection@@HAAVnsString@@@Z ; 16
?LineMove@PresShell@@UAGIHH@Z ; 16
?RemoveListener@nsSplitterFrameInner@@QAEXXZ ; 16
?GetSelected@nsFrame@@UBGIPAH@Z ; 16
?SetAdjacent@nsBoxSizeListNodeImpl@@UAEXAAVnsBoxLayoutState@@PAVnsBoxSizeList@@@Z ; 16
?Prepend@nsContainerBox@@UAEXAAVnsBoxLayoutState@@PAVnsIFrame@@@Z ; 16
?PeekOffset@nsFrame@@UAGIPAVnsIPresContext@@PAUnsPeekOffsetStruct@@@Z ; 16
?QueryInterface@nsIFrameBoxObject@@UAGIABUnsID@@PAPAX@Z ; 16
?AddListener@nsSplitterFrameInner@@QAEXPAVnsIPresContext@@@Z ; 16
?Unregister@nsMenuDismissalListener@@UAGIXZ ; 15
??_GnsSplitterFrame@@UAEPAXI@Z ; 15
??1nsSplitterFrameInner@@UAE@XZ ; 15
??0nsLabelFrame@@QAE@XZ ; 15
?GetWidgetForView@@YAXPAVnsIView@@AAPAVnsIWidget@@@Z ; 15
??_GDefaultArea@@UAEPAXI@Z ; 15
?Reflow@nsLabelFrame@@UAGIPAVnsIPresContext@@AAUnsHTMLReflowMetrics@@ABUnsHTMLReflowState@@AAI@Z ; 15
??1nsLabelFrame@@UAE@XZ ; 15
?GetPseudoCellFrame@nsCSSFrameConstructor@@IAEIPAVnsIPresShell@@PAVnsIPresContext@@AAUnsTableCreator@@AAVnsFrameConstructorState@@AAVnsIFrame@@@Z ; 15
??1DefaultArea@@UAE@XZ ; 15
?SyncViewWithFrame@nsMenuPopupFrame@@QAEIPAVnsIPresContext@@ABVnsString@@1PAVnsIFrame@@HH@Z ; 15
?Init@nsSplitterFrame@@UAGIPAVnsIPresContext@@PAVnsIContent@@PAVnsIFrame@@PAVnsIStyleContext@@2@Z ; 15
?GetInitialOrientation@nsSplitterFrame@@UAEXAAH@Z ; 15
?SetInitialChildList@nsLabelFrame@@UAGIPAVnsIPresContext@@PAVnsIAtom@@PAVnsIFrame@@@Z ; 15
?Destroy@nsLabelFrame@@UAGIPAVnsIPresContext@@@Z ; 15
?NS_NewSplitterFrame@@YAIPAVnsIPresShell@@PAPAVnsIFrame@@@Z ; 15
??_EnsLabelFrame@@UAEPAXI@Z ; 15
??1nsSplitterFrame@@UAE@XZ ; 15
?GetNextFrame@nsXULTreeGroupFrame@@QAEPAVnsIFrame@@PAV2@@Z ; 15
?ProcessPseudoCellFrame@@YAIPAVnsIPresContext@@AAUnsPseudoFrames@@AAPAVnsIFrame@@@Z ; 15
?Init@nsLabelFrame@@UAGIPAVnsIPresContext@@PAVnsIContent@@PAVnsIFrame@@PAVnsIStyleContext@@2@Z ; 15
?IsInside@DefaultArea@@UAEHHH@Z ; 15
??0nsSplitterFrame@@QAE@PAVnsIPresShell@@@Z ; 15
?NS_NewLabelFrame@@YAIPAVnsIPresShell@@PAPAVnsIFrame@@I@Z ; 15
??_EnsSplitterFrameInner@@UAEPAXI@Z ; 15
?ProcessPseudoFrames@@YAIPAVnsIPresContext@@AAUnsPseudoFrames@@PAVnsIAtom@@AAPAVnsIFrame@@@Z ; 15
??0nsSplitterFrameInner@@QAE@PAVnsSplitterFrame@@@Z ; 15
?CreatePseudoCellFrame@nsCSSFrameConstructor@@IAEIPAVnsIPresShell@@PAVnsIPresContext@@AAUnsTableCreator@@AAVnsFrameConstructorState@@PAVnsIFrame@@@Z ; 15
?ProcessPseudoFrames@@YAIPAVnsIPresContext@@AAUnsPseudoFrames@@AAUnsFrameItems@@@Z ; 15
?GetViewOffset@nsMenuPopupFrame@@QAEXPAVnsIViewManager@@PAVnsIView@@AAUnsPoint@@@Z ; 15
??0DefaultArea@@QAE@PAVnsIContent@@HH@Z ; 15
?IsSuccessful@nsGfxTextControlFrame2@@UAEHPAVnsIFormControlFrame@@@Z ; 14
?GetNamesValues@nsGfxTextControlFrame2@@UAEHHAAHPAVnsString@@1@Z ; 14
?GetClassObject@nsLayoutModule@@UAGIPAVnsIComponentManager@@ABUnsID@@1PAPAX@Z ; 14
??_GnsLayoutFactory@@MAEPAXI@Z ; 14
??0nsLayoutFactory@@QAE@ABUnsID@@@Z ; 14
??1nsLayoutFactory@@MAE@XZ ; 14
??1nsOutlinerColFrame@@MAE@XZ ; 13
?Clear@nsXULTreeRowGroupInfo@@QAEXXZ ; 13
?RePositionPopup@nsPopupSetFrame@@UAEXAAVnsBoxLayoutState@@@Z ; 13
??_EnsOutlinerColFrame@@MAEPAXI@Z ; 13
?IsInside@nsImageMap@@QAEHHH@Z ; 13
?GetName@nsFileControlFrame@@UAGIPAVnsString@@@Z ; 13
??0nsOutlinerColFrame@@IAE@PAVnsIPresShell@@HPAVnsIBoxLayout@@@Z ; 13
?NS_NewOutlinerColFrame@@YAIPAVnsIPresShell@@PAPAVnsIFrame@@HPAVnsIBoxLayout@@@Z ; 13
?IsSuccessful@nsFileControlFrame@@UAEHPAVnsIFormControlFrame@@@Z ; 13
?MarkAsGenerated@nsMenuFrame@@UAGIXZ ; 13
?GetNamesValues@nsComboboxControlFrame@@UAEHHAAHPAVnsString@@1@Z ; 13
?SetCaretWidth@nsCaret@@UAGIH@Z ; 12
?VisibilityChanged@nsXULTreeOuterGroupFrame@@UAGIH@Z ; 12
?ScrollFrameIntoView@PresShell@@UBGIPAVnsIFrame@@HH@Z ; 12
?Paint@nsHTMLFramesetBorderFrame@@UAGIPAVnsIPresContext@@AAVnsIRenderingContext@@ABUnsRect@@W4nsFramePaintLayer@@@Z ; 12
?RemoveVerticalScrollbar@nsGfxScrollFrameInner@@QAEHAAVnsBoxLayoutState@@AAUnsRect@@H@Z ; 12
?GetProperty@nsBoxObject@@UAGIPBGPAPAG@Z ; 12
?GetRangeAt@nsOutlinerSelection@@UAGIHPAH0@Z ; 12
?GetTreeBody@nsXULTreeFrame@@QAEXPAPAVnsXULTreeOuterGroupFrame@@@Z ; 12
?AdjustChildren@nsSplitterFrameInner@@QAEXPAVnsIPresContext@@PAVnsSplitterInfo@@HH@Z ; 12
?IsSuccessful@nsFormControlFrame@@UAEHPAVnsIFormControlFrame@@@Z ; 12
?InvalidateRange@nsOutlinerBodyFrame@@UAGIHH@Z ; 11
?GetNumLines@nsTableRowGroupFrame@@UAGIPAH@Z ; 11
?NS_NewScrollBoxFrame@@YAIPAVnsIPresShell@@PAPAVnsIFrame@@@Z ; 11
?FindLineContaining@nsTableRowGroupFrame@@UAGIPAVnsIFrame@@PAH@Z ; 11
?Blur@nsTextInputListener@@UAEIPAVnsIDOMEvent@@@Z ; 11
?IsSuccessful@nsListControlFrame@@UAEHPAVnsIFormControlFrame@@@Z ; 11
?GetMaxNumValues@nsListControlFrame@@UAEHXZ ; 11
?GetFramesetParent@nsHTMLFramesetFrame@@SAPAV1@PAVnsIFrame@@@Z ; 10
?FrameAt@nsFrameList@@QBEPAVnsIFrame@@H@Z ; 10
??_EnsSprocketLayout@@UAEPAXI@Z ; 10
?GetNamesValues@nsGfxCheckboxControlFrame@@UAEHHAAHPAVnsString@@1@Z ; 10
??0CircleArea@@QAE@PAVnsIContent@@HH@Z ; 10
?QueryInterface@nsGfxScrollFrameInner@@UAGIABUnsID@@PAPAX@Z ; 10
?NS_NewHTMLFramesetFrame@@YAIPAVnsIPresShell@@PAPAVnsIFrame@@@Z ; 10
?Reflow@nsHTMLFramesetFrame@@UAGIPAVnsIPresContext@@AAUnsHTMLReflowMetrics@@ABUnsHTMLReflowState@@AAI@Z ; 10
?AddRemoveSpace@nsSplitterFrameInner@@QAEXHPAVnsSplitterInfo@@HAAH@Z ; 10
?GetNoResize@nsHTMLFramesetFrame@@IAEHPAVnsIFrame@@@Z ; 10
?RemoveKeyboardNavigator@nsMenuPopupFrame@@UAGIXZ ; 10
?FindForControl@nsLabelFrame@@IAEHAAPAVnsIFormControlFrame@@@Z ; 10
?FindFrameAt@nsTableRowGroupFrame@@UAGIHHPAPAVnsIFrame@@PAH1@Z ; 10
??0nsHTMLFramesetFrame@@QAE@XZ ; 10
?OnDestroy@nsPopupSetFrame@@QAEHXZ ; 10
?GetDesiredSize@nsHTMLFramesetFrame@@MAEXPAVnsIPresContext@@ABUnsHTMLReflowState@@AAUnsHTMLReflowMetrics@@@Z ; 10
?RePositionPopup@nsMenuFrame@@MAEXAAVnsBoxLayoutState@@@Z ; 10
??0nsFramesetDrag@@QAE@XZ ; 10
??1nsHTMLFramesetFrame@@UAE@XZ ; 10
?GetFor@nsLabelFrame@@UAGIAAVnsString@@@Z ; 10
??1CircleArea@@UAE@XZ ; 10
?AttributeChanged@nsOutlinerColFrame@@UAGIPAVnsIPresContext@@PAVnsIContent@@HPAVnsIAtom@@H@Z ; 10
?GetFirstFrame@nsXULTreeGroupFrame@@QAEPAVnsIFrame@@XZ ; 10
??_ECircleArea@@UAEPAXI@Z ; 10
?DragThumb@nsSliderFrame@@EAGIPAVnsIPresContext@@H@Z ; 10
?Init@nsHTMLFramesetFrame@@UAGIPAVnsIPresContext@@PAVnsIContent@@PAVnsIFrame@@PAVnsIStyleContext@@2@Z ; 10
?MouseClicked@nsButtonBoxFrame@@UAEXPAVnsIPresContext@@PAUnsGUIEvent@@@Z ; 10
?AppendFrames@nsPopupSetFrame@@UAGIPAVnsIPresContext@@AAVnsIPresShell@@PAVnsIAtom@@PAVnsIFrame@@@Z ; 10
?GetBorderWidth@nsHTMLFramesetFrame@@IAEHPAVnsIPresContext@@@Z ; 10
??_EnsBorderColor@@QAEPAXI@Z ; 10
?CanChildResize@nsHTMLFramesetFrame@@IAEHHHHH@Z ; 10
?GetLine@nsTableRowGroupFrame@@UAGIHPAPAVnsIFrame@@PAHAAUnsRect@@PAI@Z ; 10
?DestroyRows@nsXULTreeGroupFrame@@QAEXAAH@Z ; 10
??_EnsHTMLFramesetFrame@@UAEPAXI@Z ; 10
?GetOffsetRect@nsBoxObject@@QAEIAAUnsRect@@@Z ; 10
?MarkAsGenerated@nsPopupSetFrame@@IAEXPAVnsIContent@@@Z ; 10
?ParseRowColSpec@nsHTMLFramesetFrame@@IAEHPAVnsIPresContext@@AAVnsString@@HPAUnsFramesetSpec@@@Z ; 10
?AppendFrames@nsMenuFrame@@UAGIPAVnsIPresContext@@AAVnsIPresShell@@PAVnsIAtom@@PAVnsIFrame@@@Z ; 9
??0nsStackLayout@@QAE@XZ ; 9
?ScrollIntoView@nsGfxTextControlFrame2@@UAEXPAVnsIPresContext@@@Z ; 9
?Reflow@nsOutlinerBodyFrame@@UAGIPAVnsIPresContext@@AAUnsHTMLReflowMetrics@@ABUnsHTMLReflowState@@AAI@Z ; 9
?Draw@CircleArea@@UAEXPAVnsIPresContext@@AAVnsIRenderingContext@@@Z ; 9
?CreateRDFDocument@nsLayoutDLF@@QAEIPBDPAVnsIChannel@@PAVnsILoadGroup@@0PAVnsISupports@@3PAPAVnsIStreamListener@@PAPAVnsIContentViewer@@@Z ; 9
?AttributeChanged@nsHTMLFrameOuterFrame@@UAGIPAVnsIPresContext@@PAVnsIContent@@HPAVnsIAtom@@H@Z ; 9
?Reflow@nsLeafBoxFrame@@UAGIPAVnsIPresContext@@AAUnsHTMLReflowMetrics@@ABUnsHTMLReflowState@@AAI@Z ; 9
?CreateRDFDocument@nsLayoutDLF@@QAEIPAVnsISupports@@PAV?$nsCOMPtr@VnsIDocument@@@@PAV?$nsCOMPtr@VnsIDocumentViewer@@@@@Z ; 9
?InvalidateScrollbar@nsOutlinerBodyFrame@@UAGIXZ ; 9
?AdjustClientXYForNestedDocuments@nsMenuPopupFrame@@IAEXPAVnsIDOMXULDocument@@PAVnsIPresShell@@HHPAH2@Z ; 8
?SetFocused@nsOutlinerBoxObject@@UAGIH@Z ; 8
?NS_NewRootBoxFrame@@YAIPAVnsIPresShell@@PAPAVnsIFrame@@@Z ; 8
?IsSuccessful@nsGfxButtonControlFrame@@UAEHPAVnsIFormControlFrame@@@Z ; 8
?SetFocused@nsOutlinerBodyFrame@@UAGIH@Z ; 8
?UpdateScrollbar@nsOutlinerBodyFrame@@IAEXXZ ; 8
?GetWidget@nsMenuPopupFrame@@UAGIPAPAVnsIWidget@@@Z ; 8
??0nsRootBoxFrame@@QAE@PAVnsIPresShell@@@Z ; 8
?GetContainingBlock@nsHTMLReflowCommand@@IBEPAVnsIFrame@@PAV2@@Z ; 8
?SetScrollbarMediator@nsScrollbarFrame@@UAGIPAVnsIScrollbarMediator@@@Z ; 8
?Focus@nsTextInputListener@@UAEIPAVnsIDOMEvent@@@Z ; 8
?HandleEvent@nsLabelFrame@@UAGIPAVnsIPresContext@@PAUnsGUIEvent@@PAW4nsEventStatus@@@Z ; 8
??0nsGridLayout@@IAE@PAVnsIPresShell@@@Z ; 8
?SetCurrentMenuParent@nsMenuDismissalListener@@QAEXPAVnsIMenuParent@@@Z ; 8
?NS_NewGridLayout@@YAIPAVnsIPresShell@@AAV?$nsCOMPtr@VnsIBoxLayout@@@@@Z ; 8
?ScrollToRow@nsOutlinerBodyFrame@@UAGIH@Z ; 8
?SetCaretWidth@nsTextInputSelectionImpl@@UAGIF@Z ; 8
?MouseOver@nsListEventListener@@UAEIPAVnsIDOMEvent@@@Z ; 8
??0nsTreeScrollPortFrame@@QAE@PAVnsIPresShell@@@Z ; 7
?EnsureOrient@nsSplitterFrameInner@@QAEXXZ ; 7
?InvalidateRange@nsOutlinerBoxObject@@UAGIHH@Z ; 7
??_GnsXULTreeOuterGroupFrame@@EAEPAXI@Z ; 7
?AdjustPositionForAnchorAlign@nsMenuPopupFrame@@IAEXPAH0ABUnsRect@@ABVnsString@@20@Z ; 7
??_GnsDragOverListener@@UAEPAXI@Z ; 7
?CreateDismissalListener@nsMenuPopupFrame@@UAGIXZ ; 7
?Destroy@nsXULTreeOuterGroupFrame@@UAGIPAVnsIPresContext@@@Z ; 7
??_GnsMenuDismissalListener@@UAEPAXI@Z ; 7
??0nsXULTreeRowGroupInfo@@QAE@XZ ; 7
??1nsXULTreeOuterGroupFrame@@EAE@XZ ; 7
?NS_NewTreeScrollPortFrame@@YAIPAVnsIPresShell@@PAPAVnsIFrame@@@Z ; 7
??0nsMenuDismissalListener@@QAE@XZ ; 7
?NS_NewXULTreeOuterGroupFrame@@YAIPAVnsIPresShell@@PAPAVnsIFrame@@HPAVnsIBoxLayout@@@Z ; 7
??1nsMenuDismissalListener@@UAE@XZ ; 7
??0nsXULTreeOuterGroupFrame@@AAE@PAVnsIPresShell@@HPAVnsIBoxLayout@@@Z ; 7
?GetCollapseDirection@nsSplitterFrameInner@@QAE?AW4CollapseDirection@1@XZ ; 7
?Init@nsXULTreeOuterGroupFrame@@UAGIPAVnsIPresContext@@PAVnsIContent@@PAVnsIFrame@@PAVnsIStyleContext@@2@Z ; 7
?GetCellIndexes@nsTableCellFrame@@UAGIAAH0@Z ; 7
?GetScrollbarBox@nsGfxScrollFrame@@UAGIHPAPAVnsIBox@@@Z ; 7
?GetScrollableView@nsGfxScrollFrame@@UAGIPAVnsIPresContext@@PAPAVnsIScrollableView@@@Z ; 7
?ActivateMenu@nsMenuFrame@@UAGIH@Z ; 7
?Start@nsRepeatService@@QAEXPAVnsITimerCallback@@@Z ; 6
??1nsXULTreeFrame@@MAE@XZ ; 6
??0nsPopupSetBoxObject@@QAE@XZ ; 6
??_GnsXULTreeFrame@@MAEPAXI@Z ; 6
?NS_NewXULTreeFrame@@YAIPAVnsIPresShell@@PAPAVnsIFrame@@HPAVnsIBoxLayout@@@Z ; 6
?SetDelayedCaretData@nsTextInputSelectionImpl@@UAGIPAUnsMouseEvent@@@Z ; 6
?SetSelectionEndPoints@nsGfxTextControlFrame2@@AAEIHH@Z ; 6
?GetSelection@nsOutlinerBoxObject@@UAGIPAPAVnsIOutlinerSelection@@@Z ; 6
?SetActiveChild@nsPopupSetFrame@@UAGIPAVnsIDOMElement@@@Z ; 6
?SetMouseDownState@nsTextInputSelectionImpl@@UAGIH@Z ; 6
?HandleEvent@nsRootBoxFrame@@UAGIPAVnsIPresContext@@PAUnsGUIEvent@@PAW4nsEventStatus@@@Z ; 6
?EnableListener@nsMenuDismissalListener@@UAGIH@Z ; 6
?AdjustChildren@nsSplitterFrameInner@@QAEXPAVnsIPresContext@@@Z ; 6
?UpdateDismissalListener@nsPopupSetFrame@@IAEXPAVnsIMenuParent@@@Z ; 6
?GetDelayCaretOverExistingSelection@nsTextInputSelectionImpl@@UAGIPAH@Z ; 6
??0nsXULTreeFrame@@IAE@PAVnsIPresShell@@HPAVnsIBoxLayout@@@Z ; 6
?RemoveListener@nsBoxSizeListImpl@@UAEXXZ ; 6
?RegenerateRowGroupInfo@nsXULTreeOuterGroupFrame@@QAEXH@Z ; 6
?SetSelectionRange@nsGfxTextControlFrame2@@UAGIHH@Z ; 6
?NS_NewPopupSetBoxObject@@YAIPAPAVnsIBoxObject@@@Z ; 6
?SetActive@nsMenuBarFrame@@UAGIH@Z ; 6
?GetResizeAfter@nsSplitterFrameInner@@QAE?AW4ResizeType@1@XZ ; 6
?MouseOut@nsListEventListener@@UAEIPAVnsIDOMEvent@@@Z ; 6
??_GnsPopupSetBoxObject@@UAEPAXI@Z ; 6
?GetIsActive@nsMenuBarFrame@@UAGIAAH@Z ; 6
?GetFirstTextNode@nsGfxTextControlFrame2@@AAGIPAPAVnsIDOMCharacterData@@@Z ; 6
?SetActiveChild@nsPopupSetBoxObject@@UAGIPAVnsIDOMElement@@@Z ; 6
?InvalidateSelection@nsOutlinerSelection@@UAGIXZ ; 6
?GetSelection@nsOutlinerBodyFrame@@UAGIPAPAVnsIOutlinerSelection@@@Z ; 6
?HandleEvent@CanvasFrame@@UAGIPAVnsIPresContext@@PAUnsGUIEvent@@PAW4nsEventStatus@@@Z ; 6
??1nsPopupSetBoxObject@@UAE@XZ ; 6
?SetProperty@nsBoxObject@@UAGIPBG0@Z ; 5
?AddFrame@nsBlinkTimer@@QAEXPAVnsIPresContext@@PAVnsIFrame@@@Z ; 5
?MouseClicked@nsScrollbarButtonFrame@@MAEXXZ ; 5
?CallOnChange@nsGfxTextControlFrame2@@UAGIXZ ; 5
?MouseDown@nsSliderMediator@@UAEIPAVnsIDOMEvent@@@Z ; 5
??1nsHTMLFramesetBorderFrame@@MAE@XZ ; 5
?GetIncrement@nsSliderFrame@@SAHPAVnsIContent@@@Z ; 5
?Stop@nsBlinkTimer@@QAEXXZ ; 5
?RemoveFrame@nsPopupSetFrame@@UAGIPAVnsIPresContext@@AAVnsIPresShell@@PAVnsIAtom@@PAVnsIFrame@@@Z ; 5
?AttributeChanged@nsGfxButtonControlFrame@@MAGIPAVnsIPresContext@@PAVnsIContent@@HPAVnsIAtom@@H@Z ; 5
?RemoveFrame@nsBlinkTimer@@QAEHPAVnsIFrame@@@Z ; 5
?HandlePress@nsScrollbarButtonFrame@@UAGIPAVnsIPresContext@@PAUnsGUIEvent@@PAW4nsEventStatus@@@Z ; 5
?MouseDown@nsSliderFrame@@UAEIPAVnsIDOMEvent@@@Z ; 5
??_GnsHTMLFramesetBorderFrame@@MAEPAXI@Z ; 5
?SetBorderResize@nsHTMLFramesetFrame@@IAEXPAHPAVnsHTMLFramesetBorderFrame@@@Z ; 5
?RemoveBlinkFrame@nsBlinkTimer@@SAIPAVnsIFrame@@@Z ; 5
?ScrollbarButtonPressed@nsOutlinerBodyFrame@@UAGIHH@Z ; 5
?CreatePseudoRowFrame@nsCSSFrameConstructor@@IAEIPAVnsIPresShell@@PAVnsIPresContext@@AAUnsTableCreator@@AAVnsFrameConstructorState@@PAVnsIFrame@@@Z ; 5
?GetDesiredSize@nsHTMLFramesetBlankFrame@@MAEXPAVnsIPresContext@@ABUnsHTMLReflowState@@AAUnsHTMLReflowMetrics@@@Z ; 5
?Reflow@nsHTMLFramesetBorderFrame@@UAGIPAVnsIPresContext@@AAUnsHTMLReflowMetrics@@ABUnsHTMLReflowState@@AAI@Z ; 5
?Clear@FrameHashTable@@QAEXXZ ; 5
?PlaceBelowCurrentLineFloaters@nsBlockReflowState@@QAEXAAVnsFloaterCacheList@@@Z ; 5
?ScrollPositionDidChange@nsGfxScrollFrameInner@@UAGIPAVnsIScrollableView@@HH@Z ; 5
?SetColor@nsHTMLFramesetBorderFrame@@QAEXI@Z ; 5
?AddBlinkFrame@nsBlinkTimer@@SAIPAVnsIPresContext@@PAVnsIFrame@@@Z ; 5
?ContentReplaced@nsGfxScrollFrameInner@@UAGIPAVnsIDocument@@PAVnsIContent@@11H@Z ; 5
?MouseClicked@nsScrollbarButtonFrame@@MAEXPAVnsIPresContext@@PAUnsGUIEvent@@@Z ; 5
?Invalidate@nsOutlinerBodyFrame@@UAGIXZ ; 5
?Start@nsBlinkTimer@@QAEXXZ ; 5
?IndexOfItem@nsXULTreeOuterGroupFrame@@UAGIPAVnsIContent@@0HHPAH@Z ; 5
?RemoveListener@nsSliderFrame@@AAEXXZ ; 5
??0nsHTMLFramesetBorderFrame@@IAE@HHH@Z ; 5
?ResizeChildTo@nsSplitterFrameInner@@QAEXPAVnsIPresContext@@AAHPAVnsSplitterInfo@@2HHH@Z ; 5
?Remove@nsFloaterCacheList@@QAEXPAVnsFloaterCache@@@Z ; 4
?GetMenuParent@nsMenuFrame@@UAGIPAPAVnsIMenuParent@@@Z ; 4
?Select@nsOutlinerSelection@@UAGIH@Z ; 4
?GetView@nsOutlinerBoxObject@@UAGIPAPAVnsIOutlinerView@@@Z ; 4
?Find@nsFloaterCacheList@@QAEPAVnsFloaterCache@@PAVnsIFrame@@@Z ; 4
?OpenMenu@nsMenuFrame@@UAGIH@Z ; 4
?RemoveStateProperty@nsPresState@@UAGIABVnsAString@@@Z ; 4
?GetName@nsHTMLButtonControlFrame@@UAGIPAVnsString@@@Z ; 4
??0nsDeckFrame@@QAE@PAVnsIPresShell@@PAVnsIBoxLayout@@@Z ; 4
?Invalidate@nsOutlinerRange@@QAEXXZ ; 4
?HideChain@nsMenuPopupFrame@@UAGIXZ ; 4
?FireOnSelectHandler@nsOutlinerSelection@@IAEIXZ ; 4
??_EnsGrippyFrame@@UAEPAXI@Z ; 4
?RemoveProperty@nsBoxObject@@UAGIPBG@Z ; 4
?GetItemWithinCellAt@nsOutlinerBodyFrame@@IAEIHABUnsRect@@HPAVnsOutlinerColumn@@PAPAG@Z ; 4
?NS_NewProgressMeterFrame@@YAIPAVnsIPresShell@@PAPAVnsIFrame@@@Z ; 4
?GetCellAt@nsOutlinerBoxObject@@UAGIHHPAHPAPAG1@Z ; 4
??0nsMenuBarListener@@QAE@PAVnsMenuBarFrame@@@Z ; 4
??_GnsProgressMeterFrame@@MAEPAXI@Z ; 4
?NS_NewGrippyFrame@@YAIPAVnsIPresShell@@PAPAVnsIFrame@@@Z ; 4
?NS_NewDeckFrame@@YAIPAVnsIPresShell@@PAPAVnsIFrame@@PAVnsIBoxLayout@@@Z ; 4
??1nsMenuBarFrame@@UAE@XZ ; 4
?RemoveFloater@nsLineBox@@QAEHPAVnsIFrame@@@Z ; 4
?CancelAllReflowCommands@PresShell@@UAGIXZ ; 4
??_GnsMenuBarListener@@UAEPAXI@Z ; 4
??0nsProgressMeterFrame@@IAE@PAVnsIPresShell@@@Z ; 4
?GetOutlinerBody@nsOutlinerBodyFrame@@UAGIPAPAVnsIDOMElement@@@Z ; 4
??1nsProgressMeterFrame@@MAE@XZ ; 4
?SetCurrentIndex@nsOutlinerSelection@@UAGIH@Z ; 4
?SetCaretWidth@PresShell@@UAGIF@Z ; 4
?DismissChain@nsMenuPopupFrame@@UAGIXZ ; 4
?GetX@nsBoxObject@@UAGIPAH@Z ; 4
?NS_NewIFrameBoxObject@@YAIPAPAVnsIBoxObject@@@Z ; 4
?GetY@nsBoxObject@@UAGIPAH@Z ; 4
?NS_NewMenuBarFrame@@YAIPAVnsIPresShell@@PAPAVnsIFrame@@@Z ; 4
?GetCellAt@nsOutlinerBodyFrame@@UAGIHHPAHPAPAG1@Z ; 4
??_EnsIFrameBoxObject@@UAEPAXI@Z ; 4
??_GnsMenuBarFrame@@UAEPAXI@Z ; 4
??1nsGrippyFrame@@UAE@XZ ; 4
?Init@nsMenuBarFrame@@UAGIPAVnsIPresContext@@PAVnsIContent@@PAVnsIFrame@@PAVnsIStyleContext@@2@Z ; 4
?SetInitialChildList@nsProgressMeterFrame@@UAGIPAVnsIPresContext@@PAVnsIAtom@@PAVnsIFrame@@@Z ; 4
??0nsGrippyFrame@@QAE@PAVnsIPresShell@@@Z ; 4
?Destroy@nsMenuBarFrame@@UAGIPAVnsIPresContext@@@Z ; 4
??1nsIFrameBoxObject@@UAE@XZ ; 4
?GetCursor@nsHTMLFramesetFrame@@UAGIPAVnsIPresContext@@AAUnsPoint@@AAH@Z ; 4
??0nsMenuBarFrame@@QAE@PAVnsIPresShell@@@Z ; 4
??1nsMenuBarListener@@UAE@XZ ; 4
?Cancel@DummyLayoutRequest@@UAGII@Z ; 4
?StyleSheetDisabledStateChanged@PresShell@@UAGIPAVnsIDocument@@PAVnsIStyleSheet@@H@Z ; 4
??0nsIFrameBoxObject@@QAE@XZ ; 4
?SetInitialChildList@nsDeckFrame@@UAGIPAVnsIPresContext@@PAVnsIAtom@@PAVnsIFrame@@@Z ; 4
?Init@nsDeckFrame@@UAGIPAVnsIPresContext@@PAVnsIContent@@PAVnsIFrame@@PAVnsIStyleContext@@2@Z ; 4
?Remove@FrameHashTable@@QAEPAXPAX@Z ; 4
?GetAttribute@nsHTMLReflowCommand@@UBGIAAPAVnsIAtom@@@Z ; 4
?Stop@nsScrollSmoother@@QAEXXZ ; 4
?OpenMenuInternal@nsMenuFrame@@IAEXH@Z ; 4
?KillCloseTimer@nsMenuPopupFrame@@UAGIXZ ; 4
?IndexOf@nsFrameNavigator@@SAHPAVnsIPresContext@@PAVnsIBox@@1@Z ; 3
??1nsOutlinerSelection@@UAE@XZ ; 3
??_EnsMenuListener@@UAEPAXI@Z ; 3
??1nsMenuListener@@UAE@XZ ; 3
?EnsureRowIsVisible@nsOutlinerBodyFrame@@UAGIH@Z ; 3
?HandleClick@nsTextInputSelectionImpl@@UAGIPAVnsIContent@@IIHHH@Z ; 3
?RemapStyleAndReflow@nsPresContext@@UAGIXZ ; 3
?SetView@nsOutlinerBodyFrame@@UAGIPAVnsIOutlinerView@@@Z ; 3
??0nsMenuListener@@QAE@PAVnsIMenuParent@@@Z ; 3
?PrefChangedCallback@@YAHPBDPAX@Z ; 3
?CharacterMove@nsTextInputSelectionImpl@@UAGIHH@Z ; 3
?SetPropertyAsSupports@nsBoxObject@@UAGIPBGPAVnsISupports@@@Z ; 3
?EnsureRowIsVisible@nsOutlinerBoxObject@@UAGIH@Z ; 3
?SetView@nsOutlinerBoxObject@@UAGIPAVnsIOutlinerView@@@Z ; 3
?GetNextSiblingOnLine@nsLineIterator@@UAGIAAPAVnsIFrame@@H@Z ; 3
?PreferenceChanged@nsPresContext@@AAEXPBD@Z ; 3
?Execute@nsMenuFrame@@IAEXXZ ; 3
?AdjustOffsetsFromStyle@nsTextInputSelectionImpl@@UAGIPAVnsIFrame@@PAHPAPAVnsIContent@@11@Z ; 3
??_EnsTreeBoxObject@@UAEPAXI@Z ; 3
?NS_NewOutlinerSelection@@YAIPAVnsIOutlinerBoxObject@@PAPAVnsIOutlinerSelection@@@Z ; 3
?NS_NewTreeBoxObject@@YAIPAPAVnsIBoxObject@@@Z ; 3
?GetDelayedCaretData@nsTextInputSelectionImpl@@UAGIPAPAUnsMouseEvent@@@Z ; 3
?CountFrames@nsFrameNavigator@@SAHPAVnsIPresContext@@PAVnsIBox@@@Z ; 3
??0nsOutlinerSelection@@QAE@PAVnsIOutlinerBoxObject@@@Z ; 3
??_EnsOutlinerSelection@@UAEPAXI@Z ; 3
??1nsTreeBoxObject@@UAE@XZ ; 3
??0nsTreeBoxObject@@QAE@XZ ; 3
?MouseClicked@nsHTMLButtonControlFrame@@UAEXPAVnsIPresContext@@@Z ; 2
?HandleEvent@nsListControlFrame@@UAGIPAVnsIPresContext@@PAUnsGUIEvent@@PAW4nsEventStatus@@@Z ; 2
?EnsureRowIsVisible@nsXULTreeOuterGroupFrame@@QAEXH@Z ; 2
?GetSmoother@nsXULTreeOuterGroupFrame@@IAEPAVnsScrollSmoother@@XZ ; 2
?GetChildAt@nsFrameNavigator@@SAPAVnsIBox@@PAVnsIPresContext@@PAV2@H@Z ; 2
?IsSubmit@nsHTMLButtonControlFrame@@MAEHPAVnsIPresContext@@H@Z ; 2
?InsertFrames@nsMenuFrame@@UAGIPAVnsIPresContext@@AAVnsIPresShell@@PAVnsIAtom@@PAVnsIFrame@@3@Z ; 2
?GetTarget@nsFormFrame@@UAGIPAVnsString@@@Z ; 2
?OnDestroy@nsMenuFrame@@IAEHXZ ; 2
?GetEditorShell@nsEditorBoxObject@@UAGIPAPAVnsIEditorShell@@@Z ; 2
??1nsBrowserBoxObject@@UAE@XZ ; 2
?GetEncoder@nsFormFrame@@MAGIPAPAVnsIUnicodeEncoder@@@Z ; 2
??1nsOutlinerRange@@QAE@XZ ; 2
?HidePopup@nsPopupSetFrame@@UAGIXZ ; 2
?SubmitAttempt@nsGfxTextControlFrame2@@QAEXXZ ; 2
?ClearSelection@nsOutlinerSelection@@UAGIXZ ; 2
?GetNamesValues@nsGfxRadioControlFrame@@UAEHHAAHPAVnsString@@1@Z ; 2
?InstallKeyboardNavigator@nsMenuBarFrame@@UAGIXZ ; 2
?GetHeight@nsBoxObject@@UAGIPAH@Z ; 2
?SetDocument@nsEditorBoxObject@@UAGIPAVnsIDocument@@@Z ; 2
?GetCount@nsBoxSizeListNodeImpl@@UAEHXZ ; 2
?ScrollIntoView@nsHTMLButtonControlFrame@@UAEXPAVnsIPresContext@@@Z ; 2
?OnSubmit@nsFormFrame@@UAGIPAVnsIPresContext@@PAVnsIFrame@@@Z ; 2
??_EnsBrowserBoxObject@@UAEPAXI@Z ; 2
?AttributeChanged@nsSplitterFrame@@UAGIPAVnsIPresContext@@PAVnsIContent@@HPAVnsIAtom@@H@Z ; 2
?GetIndexOfItem@nsTreeBoxObject@@UAGIPAVnsIDOMElement@@PAH@Z ; 2
??0nsBrowserBoxObject@@QAE@XZ ; 2
?InstallKeyboardNavigator@nsMenuPopupFrame@@UAGIXZ ; 2
?GetAction@nsFormFrame@@UAGIPAVnsString@@@Z ; 2
?GetChildBeforeAfter@nsFrameNavigator@@SAPAVnsIBox@@PAVnsIPresContext@@PAV2@H@Z ; 2
?Init@nsEditorBoxObject@@UAGIPAVnsIContent@@PAVnsIPresShell@@@Z ; 2
?EnablePrefStyleRules@PresShell@@UAGIHE@Z ; 2
?NS_NewEditorBoxObject@@YAIPAPAVnsIBoxObject@@@Z ; 2
?GetEnctype@nsFormFrame@@UAGIPAH@Z ; 2
?EnsureRowIsVisible@nsXULTreeFrame@@UAGIH@Z ; 2
?NS_NewBrowserBoxObject@@YAIPAPAVnsIBoxObject@@@Z ; 2
??1nsEditorBoxObject@@UAE@XZ ; 2
?UpdateDismissalListener@nsMenuFrame@@KAXPAVnsIMenuParent@@@Z ; 2
?ProcessAsURLEncoded@nsFormFrame@@IAEIPAVnsIFormProcessor@@HAAVnsString@@PAVnsIFormControlFrame@@@Z ; 2
?DoManualSubmitOrReset@nsFormControlHelper@@SAIPAVnsIPresContext@@PAVnsIPresShell@@PAVnsIFrame@@2HH@Z ; 2
?EnsureIndexIsVisible@nsTreeBoxObject@@UAGIH@Z ; 2
?OnCreate@nsMenuFrame@@IAEHXZ ; 2
?GetMethod@nsFormFrame@@UAGIPAH@Z ; 2
?GetMenuChild@nsMenuFrame@@UAGIPAPAVnsIFrame@@@Z ; 2
?GetIndexOfItem@nsXULTreeFrame@@UAGIPAVnsIPresContext@@PAVnsIDOMElement@@PAH@Z ; 2
?SetDisplayNonTextSelection@PresShell@@UAGIH@Z ; 2
??_GnsEditorBoxObject@@UAEPAXI@Z ; 2
?SetImageAnimationMode@nsPresContext@@UAGIW4nsImageAnimation@@@Z ; 2
??0nsEditorBoxObject@@QAE@XZ ; 2
?RemoveHorizontalScrollbar@nsGfxScrollFrameInner@@QAEHAAVnsBoxLayoutState@@AAUnsRect@@H@Z ; 2
?GetSubmitCharset@nsFormFrame@@IAEXAAVnsString@@@Z ; 2
?SetCaretReadOnly@PresShell@@UAGIH@Z ; 2
?RemoveKeyboardNavigator@nsMenuBarFrame@@UAGIXZ ; 1
??0nsFrameTraversal@@QAE@XZ ; 1
?SetDocument@nsOutlinerBoxObject@@UAGIPAVnsIDocument@@@Z ; 1
?Shutdown@nsRepeatService@@SAXXZ ; 1
?AddRefAtoms@nsHTMLAtoms@@SAXXZ ; 1
?Destroy@nsOutlinerBodyFrame@@UAGIPAVnsIPresContext@@@Z ; 1
?AddRefTable@nsCSSKeywords@@SAXXZ ; 1
?AddRefAtoms@nsCSSAtoms@@SAXXZ ; 1
?ReleaseAtoms@nsCSSAtoms@@SAXXZ ; 1
?AppendFrames@nsRootBoxFrame@@UAGIPAVnsIPresContext@@AAVnsIPresShell@@PAVnsIAtom@@PAVnsIFrame@@@Z ; 1
?Shutdown@nsBulletinBoardLayout@@SAXXZ ; 1
?GetNumberOfVisibleRows@nsXULTreeFrame@@UAGIPAH@Z ; 1
??_GnsRepeatService@@UAEPAXI@Z ; 1
?Init@nsOutlinerBoxObject@@UAGIPAVnsIContent@@PAVnsIPresShell@@@Z ; 1
?Notify@nsScrollSmoother@@UAGXPAVnsITimer@@@Z ; 1
?KillPendingTimers@nsMenuPopupFrame@@UAGIXZ ; 1
?IndexChanged@nsDeckFrame@@MAEXPAVnsIPresContext@@@Z ; 1
?ScrollTo@nsGfxScrollFrame@@UAGIPAVnsIPresContext@@HHI@Z ; 1
??_GnsFrameTraversal@@UAEPAXI@Z ; 1
?GetLastVisibleRow@nsOutlinerBodyFrame@@UAGIPAH@Z ; 1
??1nsScrollSmoother@@UAE@XZ ; 1
?RemoveRows@nsCellMap@@QAEXPAVnsIPresContext@@AAVnsTableCellMap@@HHH@Z ; 1
?Notify@nsMenuPopupFrame@@UAGXPAVnsITimer@@@Z ; 1
?GetPageIncrement@nsSliderFrame@@SAHPAVnsIContent@@@Z ; 1
?NewFrameTraversal@nsFrameTraversal@@UAGIPAPAVnsIBidirectionalEnumerator@@IPAVnsIPresContext@@PAVnsIFrame@@@Z ; 1
?VerticalScroll@nsXULTreeOuterGroupFrame@@QAEXH@Z ; 1
?RemoveRows@nsTableCellMap@@QAEXPAVnsIPresContext@@HHH@Z ; 1
?AdjustSelection@nsOutlinerSelection@@UAGIHH@Z ; 1
?HideChain@nsMenuBarFrame@@UAGIXZ ; 1
?RemoveFrame@nsTableRowGroupFrame@@UAGIPAVnsIPresContext@@AAVnsIPresShell@@PAVnsIAtom@@PAVnsIFrame@@@Z ; 1
?HandlePress@nsSliderFrame@@UAGIPAVnsIPresContext@@PAUnsGUIEvent@@PAW4nsEventStatus@@@Z ; 1
??_EnsOutlinerBodyFrame@@MAEPAXI@Z ; 1
?DismissChain@nsMenuBarFrame@@UAGIXZ ; 1
?AdjustRowIndices@nsTableFrame@@UAGIPAVnsIPresContext@@PAVnsIFrame@@HH@Z ; 1
??0LayoutScriptNameSet@@QAE@XZ ; 1
?ReleaseTable@nsCSSProps@@SAXXZ ; 1
??1nsRepeatService@@UAE@XZ ; 1
?RowCountChanged@nsOutlinerBodyFrame@@UAGIHH@Z ; 1
??1nsLayoutModule@@UAE@XZ ; 1
?ReleaseAtoms@nsHTMLAtoms@@SAXXZ ; 1
?QueryInterface@nsFrameTraversal@@UAGIABUnsID@@PAPAX@Z ; 1
?ContentReplaced@PresShell@@UAGIPAVnsIDocument@@PAVnsIContent@@11H@Z ; 1
?GetTableSize@nsTableFrame@@UAGIAAH0@Z ; 1
?ToggleMenuState@nsMenuFrame@@UAGIXZ ; 1
??_GnsScrollSmoother@@UAEPAXI@Z ; 1
?GetStateProperty@nsPresState@@UAGIABVnsAString@@AAV2@@Z ; 1
?IsRunning@nsScrollSmoother@@QAEHXZ ; 1
?GetMaxNumValues@nsGfxButtonControlFrame@@UAEHXZ ; 1
??_EnsObjectHashtable@@UAEPAXI@Z ; 1
?QueryInterface@nsLayoutModule@@UAGIABUnsID@@PAPAX@Z ; 1
?QueryInterface@nsPresState@@UAGIABUnsID@@PAPAX@Z ; 1
?AttributeChanged@nsDeckFrame@@UAGIPAVnsIPresContext@@PAVnsIContent@@HPAVnsIAtom@@H@Z ; 1
??1LayoutScriptNameSet@@UAE@XZ ; 1
NSGetModule ; 1
?RemoveState@nsLayoutHistoryState@@UAGIIW4StateType@nsIStatefulFrame@@@Z ; 1
?NS_NewOutlinerBodyFrame@@YAIPAVnsIPresShell@@PAPAVnsIFrame@@@Z ; 1
?GetProperty@nsComboboxControlFrame@@UAGIPAVnsIAtom@@AAVnsAString@@@Z ; 1
??1nsFrameTraversal@@UAE@XZ ; 1
?Reverse@nsSplitterFrameInner@@QAEXAAPAVnsSplitterInfo@@H@Z ; 1
?ChildrenInserted@nsTempleLayout@@UAGIPAVnsIBox@@AAVnsBoxLayoutState@@00@Z ; 1
??_EnsLayoutModule@@UAEPAXI@Z ; 1
??0nsOutlinerBodyFrame@@IAE@PAVnsIPresShell@@@Z ; 1
?Shutdown@nsTextTransformer@@SAXXZ ; 1
?GetHistoryState@PresShell@@UAGIPAPAVnsILayoutHistoryState@@@Z ; 1
?AddRefAtoms@nsXULAtoms@@SAXXZ ; 1
?GetNumberOfVisibleRows@nsXULTreeOuterGroupFrame@@UAGIPAH@Z ; 1
?AdjustRowIndices@nsTableFrame@@QAEXPAVnsIPresContext@@HH@Z ; 1
?GetScrollPosition@nsGfxScrollFrame@@UBGIPAVnsIPresContext@@AAH1@Z ; 1
?NS_NewOutlinerBoxObject@@YAIPAPAVnsIBoxObject@@@Z ; 1
?InternalPositionChangedCallback@nsXULTreeOuterGroupFrame@@UAGIXZ ; 1
?NS_CreateFrameTraversal@@YAIPAPAVnsIFrameTraversal@@@Z ; 1
??1nsOutlinerStyleCache@@UAE@XZ ; 1
?Initialize@nsTextTransformer@@SAIXZ ; 1
?GetTableSize@nsTableOuterFrame@@UAGIAAH0@Z ; 1
?AddRefTable@nsCSSProps@@SAXXZ ; 1
?AddRefAtoms@nsLayoutAtoms@@SAXXZ ; 1
?ReleaseAtoms@nsXULAtoms@@SAXXZ ; 1
?ShrinkWithoutRows@nsCellMap@@IAEXAAVnsTableCellMap@@HH@Z ; 1
??0nsOutlinerBoxObject@@QAE@XZ ; 1
?Notify@nsMenuFrame@@UAGXPAVnsITimer@@@Z ; 1
??1nsOutlinerBoxObject@@UAE@XZ ; 1
?RemoveRows@nsTableFrame@@UAEXAAVnsIPresContext@@AAVnsTableRowFrame@@HH@Z ; 1
?GetNumberOfVisibleRows@nsTreeBoxObject@@UAGIPAH@Z ; 1
?RestoreState@nsGfxTextControlFrame2@@MAGIPAVnsIPresContext@@PAVnsIPresState@@@Z ; 1
??0nsBlinkTimer@@QAE@XZ ; 1
?InternalPositionChanged@nsXULTreeOuterGroupFrame@@UAGIHHH@Z ; 1
?ReleaseTable@nsCSSKeywords@@SAXXZ ; 1
?Shutdown@nsSprocketLayout@@SAXXZ ; 1
?Start@nsScrollSmoother@@QAEXXZ ; 1
??_GLayoutScriptNameSet@@UAEPAXI@Z ; 1
?GetCaretCoordinates@nsCaret@@UAGIW4EViewCoordinates@nsICaret@@PAVnsISelection@@PAUnsRect@@PAH@Z ; 1
?PageUpDown@nsSliderFrame@@AAEXPAVnsIFrame@@H@Z ; 1
?MouseDown@nsSplitterFrameInner@@UAEIPAVnsIDOMEvent@@@Z ; 1
?GetIndexOfFirstVisibleRow@nsTreeBoxObject@@UAGIPAH@Z ; 1
??0nsLayoutModule@@QAE@XZ ; 1
?GetResizeBefore@nsSplitterFrameInner@@QAE?AW4ResizeType@1@XZ ; 1
?RowCountChanged@nsOutlinerBoxObject@@UAGIHH@Z ; 1
?Init@nsOutlinerBodyFrame@@UAGIPAVnsIPresContext@@PAVnsIContent@@PAVnsIFrame@@PAVnsIStyleContext@@2@Z ; 1
??0nsRepeatService@@IAE@XZ ; 1
?Shutdown@nsStackLayout@@SAXXZ ; 1
??1nsOutlinerBodyFrame@@MAE@XZ ; 1
?MouseUp@nsSplitterFrameInner@@QAEXPAVnsIPresContext@@PAUnsGUIEvent@@@Z ; 1
?CanUnload@nsLayoutModule@@UAGIPAVnsIComponentManager@@PAH@Z ; 1
??0nsScrollSmoother@@QAE@PAVnsXULTreeOuterGroupFrame@@@Z ; 1
?RemoveFrame@nsRootBoxFrame@@UAGIPAVnsIPresContext@@AAVnsIPresShell@@PAVnsIAtom@@PAVnsIFrame@@@Z ; 1
?ReleaseAtoms@nsLayoutAtoms@@SAXXZ ; 1
??_EnsOutlinerBoxObject@@UAEPAXI@Z ; 1
?Shutdown@nsLayoutModule@@IAEXXZ ; 1
?PositionChanged@nsXULTreeOuterGroupFrame@@UAGIHAAH@Z ; 1
?MouseUp@nsSliderMediator@@UAEIPAVnsIDOMEvent@@@Z ; 1
?GetNamesValues@nsGfxButtonControlFrame@@UAEHHAAHPAVnsString@@1@Z ; 1
?DestroyAnonymousColFrames@nsTableFrame@@QAEHAAVnsIPresContext@@H@Z ; 1
?Initialize@nsLayoutModule@@QAEIXZ ; 1
?GetIndexOfFirstVisibleRow@nsXULTreeFrame@@UAGIPAH@Z ; 1
